
RP6.elf:     file format elf32-avr

Sections:
Idx Name          Size      VMA       LMA       File off  Algn
  0 .text         00001774  00000000  00000000  00000094  2**1
                  CONTENTS, ALLOC, LOAD, READONLY, CODE
  1 .data         00000006  00800060  00001774  00001808  2**0
                  CONTENTS, ALLOC, LOAD, DATA
  2 .bss          00000080  00800066  00800066  0000180e  2**0
                  ALLOC
  3 .comment      00000030  00000000  00000000  0000180e  2**0
                  CONTENTS, READONLY
  4 .note.gnu.avr.deviceinfo 0000003c  00000000  00000000  00001840  2**2
                  CONTENTS, READONLY
  5 .debug_aranges 000000f0  00000000  00000000  0000187c  2**0
                  CONTENTS, READONLY, DEBUGGING
  6 .debug_info   00000d1e  00000000  00000000  0000196c  2**0
                  CONTENTS, READONLY, DEBUGGING
  7 .debug_abbrev 000007fe  00000000  00000000  0000268a  2**0
                  CONTENTS, READONLY, DEBUGGING
  8 .debug_line   000009fa  00000000  00000000  00002e88  2**0
                  CONTENTS, READONLY, DEBUGGING
  9 .debug_frame  00000328  00000000  00000000  00003884  2**2
                  CONTENTS, READONLY, DEBUGGING
 10 .debug_str    00000658  00000000  00000000  00003bac  2**0
                  CONTENTS, READONLY, DEBUGGING
 11 .debug_loc    00000b5d  00000000  00000000  00004204  2**0
                  CONTENTS, READONLY, DEBUGGING
 12 .debug_ranges 000000d0  00000000  00000000  00004d61  2**0
                  CONTENTS, READONLY, DEBUGGING

Disassembly of section .text:

00000000 <__vectors>:
       0:	0c 94 2a 00 	jmp	0x54	; 0x54 <__ctors_end>
       4:	0c 94 47 00 	jmp	0x8e	; 0x8e <__bad_interrupt>
       8:	0c 94 47 00 	jmp	0x8e	; 0x8e <__bad_interrupt>
       c:	0c 94 47 00 	jmp	0x8e	; 0x8e <__bad_interrupt>
      10:	0c 94 47 00 	jmp	0x8e	; 0x8e <__bad_interrupt>
      14:	0c 94 47 00 	jmp	0x8e	; 0x8e <__bad_interrupt>
      18:	0c 94 47 00 	jmp	0x8e	; 0x8e <__bad_interrupt>
      1c:	0c 94 47 00 	jmp	0x8e	; 0x8e <__bad_interrupt>
      20:	0c 94 47 00 	jmp	0x8e	; 0x8e <__bad_interrupt>
      24:	0c 94 47 00 	jmp	0x8e	; 0x8e <__bad_interrupt>
      28:	0c 94 47 00 	jmp	0x8e	; 0x8e <__bad_interrupt>
      2c:	0c 94 8e 00 	jmp	0x11c	; 0x11c <__vector_11>
      30:	0c 94 47 00 	jmp	0x8e	; 0x8e <__bad_interrupt>
      34:	0c 94 47 00 	jmp	0x8e	; 0x8e <__bad_interrupt>
      38:	0c 94 47 00 	jmp	0x8e	; 0x8e <__bad_interrupt>
      3c:	0c 94 47 00 	jmp	0x8e	; 0x8e <__bad_interrupt>
      40:	0c 94 47 00 	jmp	0x8e	; 0x8e <__bad_interrupt>
      44:	0c 94 47 00 	jmp	0x8e	; 0x8e <__bad_interrupt>
      48:	0c 94 47 00 	jmp	0x8e	; 0x8e <__bad_interrupt>
      4c:	0c 94 15 02 	jmp	0x42a	; 0x42a <__vector_19>
      50:	0c 94 47 00 	jmp	0x8e	; 0x8e <__bad_interrupt>

00000054 <__ctors_end>:
      54:	11 24       	eor	r1, r1
      56:	1f be       	out	0x3f, r1	; 63
      58:	cf e5       	ldi	r28, 0x5F	; 95
      5a:	d8 e0       	ldi	r29, 0x08	; 8
      5c:	de bf       	out	0x3e, r29	; 62
      5e:	cd bf       	out	0x3d, r28	; 61

00000060 <__do_copy_data>:
      60:	10 e0       	ldi	r17, 0x00	; 0
      62:	a0 e6       	ldi	r26, 0x60	; 96
      64:	b0 e0       	ldi	r27, 0x00	; 0
      66:	e4 e7       	ldi	r30, 0x74	; 116
      68:	f7 e1       	ldi	r31, 0x17	; 23
      6a:	02 c0       	rjmp	.+4      	; 0x70 <__do_copy_data+0x10>
      6c:	05 90       	lpm	r0, Z+
      6e:	0d 92       	st	X+, r0
      70:	a6 36       	cpi	r26, 0x66	; 102
      72:	b1 07       	cpc	r27, r17
      74:	d9 f7       	brne	.-10     	; 0x6c <__do_copy_data+0xc>

00000076 <__do_clear_bss>:
      76:	20 e0       	ldi	r18, 0x00	; 0
      78:	a6 e6       	ldi	r26, 0x66	; 102
      7a:	b0 e0       	ldi	r27, 0x00	; 0
      7c:	01 c0       	rjmp	.+2      	; 0x80 <.do_clear_bss_start>

0000007e <.do_clear_bss_loop>:
      7e:	1d 92       	st	X+, r1

00000080 <.do_clear_bss_start>:
      80:	a6 3e       	cpi	r26, 0xE6	; 230
      82:	b2 07       	cpc	r27, r18
      84:	e1 f7       	brne	.-8      	; 0x7e <.do_clear_bss_loop>
      86:	0e 94 43 09 	call	0x1286	; 0x1286 <main>
      8a:	0c 94 b8 0b 	jmp	0x1770	; 0x1770 <_exit>

0000008e <__bad_interrupt>:
      8e:	0c 94 00 00 	jmp	0	; 0x0 <__vectors>

00000092 <getBumperLeft>:

#define DISTANCE 0

int getBumperLeft() {
	
	PORT_L &= ~(1 << IO_L);
      92:	c0 98       	cbi	0x18, 0	; 24
	DDR_L &= ~(1 << IO_L);
      94:	b8 98       	cbi	0x17, 0	; 23
	#else
		//round up by default
		__ticks_dc = (uint32_t)(ceil(fabs(__tmp)));
	#endif

	__builtin_avr_delay_cycles(__ticks_dc);
      96:	00 c0       	rjmp	.+0      	; 0x98 <getBumperLeft+0x6>
	_delay_us(2);
	
	uint8_t pushed = PIN_L & (1 << IO_L);
      98:	86 b3       	in	r24, 0x16	; 22
	
	DDR_L |= (1 << IO_L);
      9a:	b8 9a       	sbi	0x17, 0	; 23
	PORT_L |= (1 <<  IO_L);
      9c:	c0 9a       	sbi	0x18, 0	; 24
	
	return pushed;
}
      9e:	81 70       	andi	r24, 0x01	; 1
      a0:	90 e0       	ldi	r25, 0x00	; 0
      a2:	08 95       	ret

000000a4 <getBumperRight>:

int getBumperRight() {
	
	PORT_R &= ~(1 << IO_R);
      a4:	ae 98       	cbi	0x15, 6	; 21
	DDR_R &= ~(1 << IO_R);
      a6:	a6 98       	cbi	0x14, 6	; 20
      a8:	00 c0       	rjmp	.+0      	; 0xaa <getBumperRight+0x6>
	_delay_us(2);
	
	uint8_t pushed = PIN_R & (1 << IO_R);
      aa:	83 b3       	in	r24, 0x13	; 19
	
	DDR_R |= (1 << IO_R);
      ac:	a6 9a       	sbi	0x14, 6	; 20
	PORT_R |= (1 <<  IO_R);
      ae:	ae 9a       	sbi	0x15, 6	; 21
	
	return pushed;
      b0:	80 74       	andi	r24, 0x40	; 64
}
      b2:	90 e0       	ldi	r25, 0x00	; 0
      b4:	08 95       	ret

000000b6 <getBumpers>:

int getBumpers() {
	
	return getBumperLeft() || getBumperRight();
      b6:	0e 94 49 00 	call	0x92	; 0x92 <getBumperLeft>
      ba:	89 2b       	or	r24, r25
      bc:	51 f4       	brne	.+20     	; 0xd2 <getBumpers+0x1c>
      be:	0e 94 52 00 	call	0xa4	; 0xa4 <getBumperRight>
      c2:	31 e0       	ldi	r19, 0x01	; 1
      c4:	20 e0       	ldi	r18, 0x00	; 0
      c6:	89 2b       	or	r24, r25
      c8:	09 f4       	brne	.+2      	; 0xcc <getBumpers+0x16>
      ca:	30 e0       	ldi	r19, 0x00	; 0
      cc:	83 2f       	mov	r24, r19
      ce:	92 2f       	mov	r25, r18
      d0:	08 95       	ret
      d2:	81 e0       	ldi	r24, 0x01	; 1
      d4:	90 e0       	ldi	r25, 0x00	; 0
      d6:	08 95       	ret

000000d8 <init_LED>:
	sei();									//Enable global interrupts
}


void init_LED(){
	DDRB |= 0b10000011;
      d8:	87 b3       	in	r24, 0x17	; 23
      da:	83 68       	ori	r24, 0x83	; 131
      dc:	87 bb       	out	0x17, r24	; 23
	DDRC |= 0b01110000;
      de:	84 b3       	in	r24, 0x14	; 20
      e0:	80 67       	ori	r24, 0x70	; 112
      e2:	84 bb       	out	0x14, r24	; 20
      e4:	08 95       	ret

000000e6 <init_micros>:
}

//Micros function --------------------------------------
void init_micros(){
	TCCR0 |= (1 << CS00);			//Set a timer prescaler of '64'
      e6:	83 b7       	in	r24, 0x33	; 51
      e8:	81 60       	ori	r24, 0x01	; 1
      ea:	83 bf       	out	0x33, r24	; 51
	TCCR0 |= (1 << CS01);			//---^
      ec:	83 b7       	in	r24, 0x33	; 51
      ee:	82 60       	ori	r24, 0x02	; 2
      f0:	83 bf       	out	0x33, r24	; 51
	TIMSK |= (1 << TOIE0);			//Enable overflow interrupts
      f2:	89 b7       	in	r24, 0x39	; 57
      f4:	81 60       	ori	r24, 0x01	; 1
      f6:	89 bf       	out	0x39, r24	; 57
	TCNT0 = 0;						//Initialize the timer by setting it to 0
      f8:	12 be       	out	0x32, r1	; 50
	t0TotalOverflow = 0;			//Initialize the overflow counter by setting it to 0
      fa:	10 92 b7 00 	sts	0x00B7, r1	; 0x8000b7 <t0TotalOverflow>
      fe:	10 92 b8 00 	sts	0x00B8, r1	; 0x8000b8 <t0TotalOverflow+0x1>
     102:	10 92 b9 00 	sts	0x00B9, r1	; 0x8000b9 <t0TotalOverflow+0x2>
     106:	10 92 ba 00 	sts	0x00BA, r1	; 0x8000ba <t0TotalOverflow+0x3>
     10a:	10 92 bb 00 	sts	0x00BB, r1	; 0x8000bb <t0TotalOverflow+0x4>
     10e:	10 92 bc 00 	sts	0x00BC, r1	; 0x8000bc <t0TotalOverflow+0x5>
     112:	10 92 bd 00 	sts	0x00BD, r1	; 0x8000bd <t0TotalOverflow+0x6>
     116:	10 92 be 00 	sts	0x00BE, r1	; 0x8000be <t0TotalOverflow+0x7>
     11a:	08 95       	ret

0000011c <__vector_11>:
}


ISR(TIMER0_OVF_vect){						//When the internal timer 1 overflows and loops back to 0, this interrupt triggers
     11c:	1f 92       	push	r1
     11e:	0f 92       	push	r0
     120:	0f b6       	in	r0, 0x3f	; 63
     122:	0f 92       	push	r0
     124:	11 24       	eor	r1, r1
     126:	2f 93       	push	r18
     128:	3f 93       	push	r19
     12a:	4f 93       	push	r20
     12c:	5f 93       	push	r21
     12e:	6f 93       	push	r22
     130:	7f 93       	push	r23
     132:	8f 93       	push	r24
     134:	9f 93       	push	r25
     136:	af 93       	push	r26
	t0TotalOverflow++;							//Increase the total overflow counter
     138:	20 91 b7 00 	lds	r18, 0x00B7	; 0x8000b7 <t0TotalOverflow>
     13c:	30 91 b8 00 	lds	r19, 0x00B8	; 0x8000b8 <t0TotalOverflow+0x1>
     140:	40 91 b9 00 	lds	r20, 0x00B9	; 0x8000b9 <t0TotalOverflow+0x2>
     144:	50 91 ba 00 	lds	r21, 0x00BA	; 0x8000ba <t0TotalOverflow+0x3>
     148:	60 91 bb 00 	lds	r22, 0x00BB	; 0x8000bb <t0TotalOverflow+0x4>
     14c:	70 91 bc 00 	lds	r23, 0x00BC	; 0x8000bc <t0TotalOverflow+0x5>
     150:	80 91 bd 00 	lds	r24, 0x00BD	; 0x8000bd <t0TotalOverflow+0x6>
     154:	90 91 be 00 	lds	r25, 0x00BE	; 0x8000be <t0TotalOverflow+0x7>
     158:	a1 e0       	ldi	r26, 0x01	; 1
     15a:	0e 94 7f 0b 	call	0x16fe	; 0x16fe <__adddi3_s8>
     15e:	20 93 b7 00 	sts	0x00B7, r18	; 0x8000b7 <t0TotalOverflow>
     162:	30 93 b8 00 	sts	0x00B8, r19	; 0x8000b8 <t0TotalOverflow+0x1>
     166:	40 93 b9 00 	sts	0x00B9, r20	; 0x8000b9 <t0TotalOverflow+0x2>
     16a:	50 93 ba 00 	sts	0x00BA, r21	; 0x8000ba <t0TotalOverflow+0x3>
     16e:	60 93 bb 00 	sts	0x00BB, r22	; 0x8000bb <t0TotalOverflow+0x4>
     172:	70 93 bc 00 	sts	0x00BC, r23	; 0x8000bc <t0TotalOverflow+0x5>
     176:	80 93 bd 00 	sts	0x00BD, r24	; 0x8000bd <t0TotalOverflow+0x6>
     17a:	90 93 be 00 	sts	0x00BE, r25	; 0x8000be <t0TotalOverflow+0x7>
}
     17e:	af 91       	pop	r26
     180:	9f 91       	pop	r25
     182:	8f 91       	pop	r24
     184:	7f 91       	pop	r23
     186:	6f 91       	pop	r22
     188:	5f 91       	pop	r21
     18a:	4f 91       	pop	r20
     18c:	3f 91       	pop	r19
     18e:	2f 91       	pop	r18
     190:	0f 90       	pop	r0
     192:	0f be       	out	0x3f, r0	; 63
     194:	0f 90       	pop	r0
     196:	1f 90       	pop	r1
     198:	18 95       	reti

0000019a <micros>:


uint64_t micros(){
     19a:	af 92       	push	r10
     19c:	bf 92       	push	r11
     19e:	cf 92       	push	r12
     1a0:	df 92       	push	r13
     1a2:	ef 92       	push	r14
     1a4:	ff 92       	push	r15
     1a6:	0f 93       	push	r16
     1a8:	1f 93       	push	r17
	uint8_t currentTimer0Value = TCNT0;																				//Get the current value of the Timer 0 register
     1aa:	a2 b7       	in	r26, 0x32	; 50
	uint64_t microsReturnValue = ((2048 * t0TotalOverflow) + (currentTimer0Value * 2048 / 256));					//Calculate the passed microseconds based on the total amount of overflows and the current timer value.
     1ac:	20 91 b7 00 	lds	r18, 0x00B7	; 0x8000b7 <t0TotalOverflow>
     1b0:	30 91 b8 00 	lds	r19, 0x00B8	; 0x8000b8 <t0TotalOverflow+0x1>
     1b4:	40 91 b9 00 	lds	r20, 0x00B9	; 0x8000b9 <t0TotalOverflow+0x2>
     1b8:	50 91 ba 00 	lds	r21, 0x00BA	; 0x8000ba <t0TotalOverflow+0x3>
     1bc:	60 91 bb 00 	lds	r22, 0x00BB	; 0x8000bb <t0TotalOverflow+0x4>
     1c0:	70 91 bc 00 	lds	r23, 0x00BC	; 0x8000bc <t0TotalOverflow+0x5>
     1c4:	80 91 bd 00 	lds	r24, 0x00BD	; 0x8000bd <t0TotalOverflow+0x6>
     1c8:	90 91 be 00 	lds	r25, 0x00BE	; 0x8000be <t0TotalOverflow+0x7>
	return microsReturnValue;																						//Return the calculated value
     1cc:	e0 e0       	ldi	r30, 0x00	; 0
     1ce:	fa 2f       	mov	r31, r26
     1d0:	ff 0f       	add	r31, r31
     1d2:	ff 0f       	add	r31, r31
     1d4:	ff 0f       	add	r31, r31
     1d6:	ff 23       	and	r31, r31
     1d8:	14 f4       	brge	.+4      	; 0x1de <micros+0x44>
     1da:	e1 50       	subi	r30, 0x01	; 1
     1dc:	ff 4f       	sbci	r31, 0xFF	; 255
     1de:	ef 2f       	mov	r30, r31
     1e0:	ee 0f       	add	r30, r30
     1e2:	ee 0b       	sbc	r30, r30
     1e4:	0b e0       	ldi	r16, 0x0B	; 11
     1e6:	0e 94 5d 0b 	call	0x16ba	; 0x16ba <__ashldi3>
     1ea:	a2 2e       	mov	r10, r18
     1ec:	b3 2e       	mov	r11, r19
     1ee:	c4 2e       	mov	r12, r20
     1f0:	d5 2e       	mov	r13, r21
     1f2:	e6 2e       	mov	r14, r22
     1f4:	f7 2e       	mov	r15, r23
     1f6:	08 2f       	mov	r16, r24
     1f8:	19 2f       	mov	r17, r25
     1fa:	2f 2f       	mov	r18, r31
     1fc:	3e 2f       	mov	r19, r30
     1fe:	4e 2f       	mov	r20, r30
     200:	5e 2f       	mov	r21, r30
     202:	6e 2f       	mov	r22, r30
     204:	7e 2f       	mov	r23, r30
     206:	8e 2f       	mov	r24, r30
     208:	9e 2f       	mov	r25, r30
     20a:	0e 94 76 0b 	call	0x16ec	; 0x16ec <__adddi3>
}
     20e:	1f 91       	pop	r17
     210:	0f 91       	pop	r16
     212:	ff 90       	pop	r15
     214:	ef 90       	pop	r14
     216:	df 90       	pop	r13
     218:	cf 90       	pop	r12
     21a:	bf 90       	pop	r11
     21c:	af 90       	pop	r10
     21e:	08 95       	ret

00000220 <init_TWI>:
//------------------------------------------------------
//I2C functions ----------------------------------------
void init_TWI(){
	TWCR = (1 << TWEN) | (1 << TWEA) | (1 << TWIE);		//Enable TWI; Enable Acknowledge; Enable Interrupt
     220:	85 e4       	ldi	r24, 0x45	; 69
     222:	86 bf       	out	0x36, r24	; 54
	TWSR = 0;											//No prescaling
     224:	11 b8       	out	0x01, r1	; 1
	TWAR = (RP6_ADDRESS << 1);									//Set slave address
     226:	86 e0       	ldi	r24, 0x06	; 6
     228:	82 b9       	out	0x02, r24	; 2
	TWBR = ((F_CPU / SCL) - 16) / 2;					//set SCL to 100kHz
     22a:	80 e2       	ldi	r24, 0x20	; 32
     22c:	80 b9       	out	0x00, r24	; 0
	DDRC |= 0b00000011;
     22e:	84 b3       	in	r24, 0x14	; 20
     230:	83 60       	ori	r24, 0x03	; 3
     232:	84 bb       	out	0x14, r24	; 20
	PORTC |= 0b00000011;
     234:	85 b3       	in	r24, 0x15	; 21
     236:	83 60       	ori	r24, 0x03	; 3
     238:	85 bb       	out	0x15, r24	; 21
     23a:	08 95       	ret

0000023c <init_rp6Data>:
}


void init_rp6Data(){
	rp6Data.driveSpeed = 0;
     23c:	e4 ea       	ldi	r30, 0xA4	; 164
     23e:	f0 e0       	ldi	r31, 0x00	; 0
     240:	10 82       	st	Z, r1
     242:	11 82       	std	Z+1, r1	; 0x01
     244:	12 82       	std	Z+2, r1	; 0x02
     246:	13 82       	std	Z+3, r1	; 0x03
	rp6Data.driveDirection = 1;
     248:	81 e0       	ldi	r24, 0x01	; 1
     24a:	84 83       	std	Z+4, r24	; 0x04
	rp6Data.turnDirection = 0;
     24c:	15 82       	std	Z+5, r1	; 0x05
	rp6Data.accelerationRate = 2000;
     24e:	20 ed       	ldi	r18, 0xD0	; 208
     250:	37 e0       	ldi	r19, 0x07	; 7
     252:	37 83       	std	Z+7, r19	; 0x07
     254:	26 83       	std	Z+6, r18	; 0x06
	rp6Data.turnRate = 2500;
     256:	24 ec       	ldi	r18, 0xC4	; 196
     258:	39 e0       	ldi	r19, 0x09	; 9
     25a:	31 87       	std	Z+9, r19	; 0x09
     25c:	20 87       	std	Z+8, r18	; 0x08
	rp6Data.driveSpeedThreshold = 7000;
     25e:	28 e5       	ldi	r18, 0x58	; 88
     260:	3b e1       	ldi	r19, 0x1B	; 27
     262:	33 87       	std	Z+11, r19	; 0x0b
     264:	22 87       	std	Z+10, r18	; 0x0a
	rp6Data.updateSpeed = 200;
     266:	48 ec       	ldi	r20, 0xC8	; 200
     268:	50 e0       	ldi	r21, 0x00	; 0
     26a:	60 e0       	ldi	r22, 0x00	; 0
     26c:	70 e0       	ldi	r23, 0x00	; 0
     26e:	44 87       	std	Z+12, r20	; 0x0c
     270:	55 87       	std	Z+13, r21	; 0x0d
     272:	66 87       	std	Z+14, r22	; 0x0e
     274:	77 87       	std	Z+15, r23	; 0x0f
	rp6Data.enableBeeper = 1;
     276:	80 8b       	std	Z+16, r24	; 0x10
     278:	08 95       	ret

0000027a <init_bumpedData>:
}

void init_bumpedData() {
	bumpedData.driveSpeed = 0;
     27a:	ef eb       	ldi	r30, 0xBF	; 191
     27c:	f0 e0       	ldi	r31, 0x00	; 0
     27e:	10 82       	st	Z, r1
     280:	11 82       	std	Z+1, r1	; 0x01
     282:	12 82       	std	Z+2, r1	; 0x02
     284:	13 82       	std	Z+3, r1	; 0x03
	bumpedData.driveDirection = 1;
     286:	81 e0       	ldi	r24, 0x01	; 1
     288:	84 83       	std	Z+4, r24	; 0x04
	bumpedData.turnDirection = 0;
     28a:	15 82       	std	Z+5, r1	; 0x05
	bumpedData.accelerationRate = 2000;
     28c:	20 ed       	ldi	r18, 0xD0	; 208
     28e:	37 e0       	ldi	r19, 0x07	; 7
     290:	37 83       	std	Z+7, r19	; 0x07
     292:	26 83       	std	Z+6, r18	; 0x06
	bumpedData.turnRate = 2500;
     294:	24 ec       	ldi	r18, 0xC4	; 196
     296:	39 e0       	ldi	r19, 0x09	; 9
     298:	31 87       	std	Z+9, r19	; 0x09
     29a:	20 87       	std	Z+8, r18	; 0x08
	bumpedData.driveSpeedThreshold = 7000;
     29c:	28 e5       	ldi	r18, 0x58	; 88
     29e:	3b e1       	ldi	r19, 0x1B	; 27
     2a0:	33 87       	std	Z+11, r19	; 0x0b
     2a2:	22 87       	std	Z+10, r18	; 0x0a
	bumpedData.updateSpeed = 200;
     2a4:	48 ec       	ldi	r20, 0xC8	; 200
     2a6:	50 e0       	ldi	r21, 0x00	; 0
     2a8:	60 e0       	ldi	r22, 0x00	; 0
     2aa:	70 e0       	ldi	r23, 0x00	; 0
     2ac:	44 87       	std	Z+12, r20	; 0x0c
     2ae:	55 87       	std	Z+13, r21	; 0x0d
     2b0:	66 87       	std	Z+14, r22	; 0x0e
     2b2:	77 87       	std	Z+15, r23	; 0x0f
	bumpedData.enableBeeper = 1;
     2b4:	80 8b       	std	Z+16, r24	; 0x10
     2b6:	08 95       	ret

000002b8 <init_arduinoData>:
	
}

void init_arduinoData(){
	arduinoData.bumperFlag = 0;
     2b8:	e6 e8       	ldi	r30, 0x86	; 134
     2ba:	f0 e0       	ldi	r31, 0x00	; 0
     2bc:	11 82       	std	Z+1, r1	; 0x01
     2be:	10 82       	st	Z, r1
	arduinoData.motorEncoderRVal = 0;
     2c0:	13 82       	std	Z+3, r1	; 0x03
     2c2:	12 82       	std	Z+2, r1	; 0x02
     2c4:	08 95       	ret

000002c6 <clearSendData>:
	
	TWCR |= (1 << TWINT);
}


void clearSendData(){
     2c6:	e2 ed       	ldi	r30, 0xD2	; 210
     2c8:	f0 e0       	ldi	r31, 0x00	; 0
     2ca:	86 ee       	ldi	r24, 0xE6	; 230
     2cc:	90 e0       	ldi	r25, 0x00	; 0
	for(int i = 0; i < DATASIZE; i++){
		sendData[i] = 0;
     2ce:	11 92       	st	Z+, r1
	TWCR |= (1 << TWINT);
}


void clearSendData(){
	for(int i = 0; i < DATASIZE; i++){
     2d0:	e8 17       	cp	r30, r24
     2d2:	f9 07       	cpc	r31, r25
     2d4:	e1 f7       	brne	.-8      	; 0x2ce <clearSendData+0x8>
		sendData[i] = 0;
	}
}
     2d6:	08 95       	ret

000002d8 <clearReceiveData>:


void clearReceiveData(){
     2d8:	e0 e9       	ldi	r30, 0x90	; 144
     2da:	f0 e0       	ldi	r31, 0x00	; 0
     2dc:	84 ea       	ldi	r24, 0xA4	; 164
     2de:	90 e0       	ldi	r25, 0x00	; 0
	for(int i = 0; i < DATASIZE; i++){
		receiveData[i] = 0;
     2e0:	11 92       	st	Z+, r1
	}
}


void clearReceiveData(){
	for(int i = 0; i < DATASIZE; i++){
     2e2:	e8 17       	cp	r30, r24
     2e4:	f9 07       	cpc	r31, r25
     2e6:	e1 f7       	brne	.-8      	; 0x2e0 <clearReceiveData+0x8>
		receiveData[i] = 0;
	}
}
     2e8:	08 95       	ret

000002ea <rp6DataInterpreter>:
		case(1): rp6DataInterpreter(); break;
	}
}


void rp6DataInterpreter(){
     2ea:	cf 93       	push	r28
     2ec:	df 93       	push	r29
	if(receiveData[2]-1 == 0){
     2ee:	20 91 92 00 	lds	r18, 0x0092	; 0x800092 <receiveData+0x2>
     2f2:	21 30       	cpi	r18, 0x01	; 1
     2f4:	49 f4       	brne	.+18     	; 0x308 <rp6DataInterpreter+0x1e>
		rp6Data.driveSpeed = 0;
     2f6:	10 92 a4 00 	sts	0x00A4, r1	; 0x8000a4 <rp6Data>
     2fa:	10 92 a5 00 	sts	0x00A5, r1	; 0x8000a5 <rp6Data+0x1>
     2fe:	10 92 a6 00 	sts	0x00A6, r1	; 0x8000a6 <rp6Data+0x2>
     302:	10 92 a7 00 	sts	0x00A7, r1	; 0x8000a7 <rp6Data+0x3>
     306:	12 c0       	rjmp	.+36     	; 0x32c <rp6DataInterpreter+0x42>
	}else{
		rp6Data.driveSpeed = receiveData[1];
     308:	80 91 91 00 	lds	r24, 0x0091	; 0x800091 <receiveData+0x1>
     30c:	90 e0       	ldi	r25, 0x00	; 0
     30e:	a0 e0       	ldi	r26, 0x00	; 0
     310:	b0 e0       	ldi	r27, 0x00	; 0
     312:	80 93 a4 00 	sts	0x00A4, r24	; 0x8000a4 <rp6Data>
     316:	90 93 a5 00 	sts	0x00A5, r25	; 0x8000a5 <rp6Data+0x1>
     31a:	a0 93 a6 00 	sts	0x00A6, r26	; 0x8000a6 <rp6Data+0x2>
     31e:	b0 93 a7 00 	sts	0x00A7, r27	; 0x8000a7 <rp6Data+0x3>
	}
	
	if(receiveData[2] < 1){
     322:	21 11       	cpse	r18, r1
     324:	03 c0       	rjmp	.+6      	; 0x32c <rp6DataInterpreter+0x42>
		rp6Data.driveDirection = 0;
     326:	10 92 a8 00 	sts	0x00A8, r1	; 0x8000a8 <rp6Data+0x4>
     32a:	03 c0       	rjmp	.+6      	; 0x332 <rp6DataInterpreter+0x48>
	}else{
		rp6Data.driveDirection = 1;
     32c:	81 e0       	ldi	r24, 0x01	; 1
     32e:	80 93 a8 00 	sts	0x00A8, r24	; 0x8000a8 <rp6Data+0x4>
	}
	
	rp6Data.turnDirection = receiveData[3]-1;
     332:	c4 ea       	ldi	r28, 0xA4	; 164
     334:	d0 e0       	ldi	r29, 0x00	; 0
     336:	e0 e9       	ldi	r30, 0x90	; 144
     338:	f0 e0       	ldi	r31, 0x00	; 0
     33a:	83 81       	ldd	r24, Z+3	; 0x03
     33c:	81 50       	subi	r24, 0x01	; 1
     33e:	8d 83       	std	Y+5, r24	; 0x05
	rp6Data.accelerationRate = (receiveData[4] << 8) + receiveData[5];
     340:	84 81       	ldd	r24, Z+4	; 0x04
     342:	90 e0       	ldi	r25, 0x00	; 0
     344:	98 2f       	mov	r25, r24
     346:	88 27       	eor	r24, r24
     348:	25 81       	ldd	r18, Z+5	; 0x05
     34a:	82 0f       	add	r24, r18
     34c:	91 1d       	adc	r25, r1
     34e:	9f 83       	std	Y+7, r25	; 0x07
     350:	8e 83       	std	Y+6, r24	; 0x06
	rp6Data.turnRate = (receiveData[6] << 8) + receiveData[7];
     352:	86 81       	ldd	r24, Z+6	; 0x06
     354:	90 e0       	ldi	r25, 0x00	; 0
     356:	98 2f       	mov	r25, r24
     358:	88 27       	eor	r24, r24
     35a:	27 81       	ldd	r18, Z+7	; 0x07
     35c:	82 0f       	add	r24, r18
     35e:	91 1d       	adc	r25, r1
     360:	99 87       	std	Y+9, r25	; 0x09
     362:	88 87       	std	Y+8, r24	; 0x08
	rp6Data.driveSpeedThreshold = (receiveData[8] << 8) + receiveData[9];
     364:	80 85       	ldd	r24, Z+8	; 0x08
     366:	90 e0       	ldi	r25, 0x00	; 0
     368:	98 2f       	mov	r25, r24
     36a:	88 27       	eor	r24, r24
     36c:	21 85       	ldd	r18, Z+9	; 0x09
     36e:	82 0f       	add	r24, r18
     370:	91 1d       	adc	r25, r1
     372:	9b 87       	std	Y+11, r25	; 0x0b
     374:	8a 87       	std	Y+10, r24	; 0x0a
	rp6Data.updateSpeed = (receiveData[10] << 8) + receiveData[11];
     376:	82 85       	ldd	r24, Z+10	; 0x0a
     378:	90 e0       	ldi	r25, 0x00	; 0
     37a:	98 2f       	mov	r25, r24
     37c:	88 27       	eor	r24, r24
     37e:	23 85       	ldd	r18, Z+11	; 0x0b
     380:	82 0f       	add	r24, r18
     382:	91 1d       	adc	r25, r1
     384:	09 2e       	mov	r0, r25
     386:	00 0c       	add	r0, r0
     388:	aa 0b       	sbc	r26, r26
     38a:	bb 0b       	sbc	r27, r27
     38c:	8c 87       	std	Y+12, r24	; 0x0c
     38e:	9d 87       	std	Y+13, r25	; 0x0d
     390:	ae 87       	std	Y+14, r26	; 0x0e
     392:	bf 87       	std	Y+15, r27	; 0x0f
	rp6Data.enableBeeper = receiveData[12];
     394:	84 85       	ldd	r24, Z+12	; 0x0c
     396:	88 8b       	std	Y+16, r24	; 0x10
	rp6Data.compassAngle = (receiveData[13] << 8) + receiveData[14];
     398:	85 85       	ldd	r24, Z+13	; 0x0d
     39a:	90 e0       	ldi	r25, 0x00	; 0
     39c:	98 2f       	mov	r25, r24
     39e:	88 27       	eor	r24, r24
     3a0:	26 85       	ldd	r18, Z+14	; 0x0e
     3a2:	82 0f       	add	r24, r18
     3a4:	91 1d       	adc	r25, r1
     3a6:	9a 8b       	std	Y+18, r25	; 0x12
     3a8:	89 8b       	std	Y+17, r24	; 0x11
}
     3aa:	df 91       	pop	r29
     3ac:	cf 91       	pop	r28
     3ae:	08 95       	ret

000003b0 <I2C_receiveInterpreter>:
}


void I2C_receiveInterpreter(){
	int dataSet = receiveData[0];
	switch(dataSet){
     3b0:	80 91 90 00 	lds	r24, 0x0090	; 0x800090 <receiveData>
     3b4:	81 30       	cpi	r24, 0x01	; 1
     3b6:	11 f4       	brne	.+4      	; 0x3bc <I2C_receiveInterpreter+0xc>
		case(1): rp6DataInterpreter(); break;
     3b8:	0e 94 75 01 	call	0x2ea	; 0x2ea <rp6DataInterpreter>
     3bc:	08 95       	ret

000003be <arduinoDataConstructor>:
	rp6Data.compassAngle = (receiveData[13] << 8) + receiveData[14];
}


void arduinoDataConstructor(){
	clearSendData();
     3be:	0e 94 63 01 	call	0x2c6	; 0x2c6 <clearSendData>
	
	sendData[0] = 1;
     3c2:	e2 ed       	ldi	r30, 0xD2	; 210
     3c4:	f0 e0       	ldi	r31, 0x00	; 0
     3c6:	81 e0       	ldi	r24, 0x01	; 1
     3c8:	80 83       	st	Z, r24
	
	sendData[1] = (arduinoData.bumperFlag >> 8);
     3ca:	a6 e8       	ldi	r26, 0x86	; 134
     3cc:	b0 e0       	ldi	r27, 0x00	; 0
     3ce:	8c 91       	ld	r24, X
     3d0:	11 96       	adiw	r26, 0x01	; 1
     3d2:	9c 91       	ld	r25, X
     3d4:	11 97       	sbiw	r26, 0x01	; 1
     3d6:	91 83       	std	Z+1, r25	; 0x01
	sendData[2] = arduinoData.bumperFlag;
     3d8:	82 83       	std	Z+2, r24	; 0x02
	
	sendData[3] = (arduinoData.motorEncoderRVal >> 8);
     3da:	12 96       	adiw	r26, 0x02	; 2
     3dc:	8c 91       	ld	r24, X
     3de:	12 97       	sbiw	r26, 0x02	; 2
     3e0:	13 96       	adiw	r26, 0x03	; 3
     3e2:	9c 91       	ld	r25, X
     3e4:	13 97       	sbiw	r26, 0x03	; 3
     3e6:	93 83       	std	Z+3, r25	; 0x03
	sendData[4] = arduinoData.motorEncoderRVal;
     3e8:	84 83       	std	Z+4, r24	; 0x04
	
	sendData[5] = (arduinoData.distanceDrivenL >> 8);
     3ea:	14 96       	adiw	r26, 0x04	; 4
     3ec:	8c 91       	ld	r24, X
     3ee:	14 97       	sbiw	r26, 0x04	; 4
     3f0:	15 96       	adiw	r26, 0x05	; 5
     3f2:	9c 91       	ld	r25, X
     3f4:	15 97       	sbiw	r26, 0x05	; 5
     3f6:	95 83       	std	Z+5, r25	; 0x05
	sendData[6] = arduinoData.distanceDrivenL;
     3f8:	86 83       	std	Z+6, r24	; 0x06
	
	sendData[7] = (arduinoData.distanceDrivenR >> 8);
     3fa:	16 96       	adiw	r26, 0x06	; 6
     3fc:	8c 91       	ld	r24, X
     3fe:	16 97       	sbiw	r26, 0x06	; 6
     400:	17 96       	adiw	r26, 0x07	; 7
     402:	9c 91       	ld	r25, X
     404:	17 97       	sbiw	r26, 0x07	; 7
     406:	97 83       	std	Z+7, r25	; 0x07
	sendData[8] = arduinoData.distanceDrivenR;
     408:	80 87       	std	Z+8, r24	; 0x08
	
	sendData[9] = (arduinoData.totalDistance >> 8);
     40a:	18 96       	adiw	r26, 0x08	; 8
     40c:	8c 91       	ld	r24, X
     40e:	18 97       	sbiw	r26, 0x08	; 8
     410:	19 96       	adiw	r26, 0x09	; 9
     412:	9c 91       	ld	r25, X
     414:	91 87       	std	Z+9, r25	; 0x09
	sendData[10] = arduinoData.totalDistance;
     416:	82 87       	std	Z+10, r24	; 0x0a
     418:	ed ed       	ldi	r30, 0xDD	; 221
     41a:	f0 e0       	ldi	r31, 0x00	; 0
     41c:	86 ee       	ldi	r24, 0xE6	; 230
     41e:	90 e0       	ldi	r25, 0x00	; 0
	
	for(int i = 11; i < DATASIZE; i++){
		sendData[i] = 0;
     420:	11 92       	st	Z+, r1
	sendData[8] = arduinoData.distanceDrivenR;
	
	sendData[9] = (arduinoData.totalDistance >> 8);
	sendData[10] = arduinoData.totalDistance;
	
	for(int i = 11; i < DATASIZE; i++){
     422:	e8 17       	cp	r30, r24
     424:	f9 07       	cpc	r31, r25
     426:	e1 f7       	brne	.-8      	; 0x420 <__LOCK_REGION_LENGTH__+0x20>
		sendData[i] = 0;
	}
}
     428:	08 95       	ret

0000042a <__vector_19>:
	arduinoData.bumperFlag = 0;
	arduinoData.motorEncoderRVal = 0;
}


ISR(TWI_vect){
     42a:	1f 92       	push	r1
     42c:	0f 92       	push	r0
     42e:	0f b6       	in	r0, 0x3f	; 63
     430:	0f 92       	push	r0
     432:	11 24       	eor	r1, r1
     434:	2f 93       	push	r18
     436:	3f 93       	push	r19
     438:	4f 93       	push	r20
     43a:	5f 93       	push	r21
     43c:	6f 93       	push	r22
     43e:	7f 93       	push	r23
     440:	8f 93       	push	r24
     442:	9f 93       	push	r25
     444:	af 93       	push	r26
     446:	bf 93       	push	r27
     448:	ef 93       	push	r30
     44a:	ff 93       	push	r31
	static int byteCounter = 0;
	switch(TWSR){
     44c:	81 b1       	in	r24, 0x01	; 1
     44e:	80 3a       	cpi	r24, 0xA0	; 160
     450:	21 f1       	breq	.+72     	; 0x49a <__vector_19+0x70>
     452:	28 f4       	brcc	.+10     	; 0x45e <__vector_19+0x34>
     454:	80 36       	cpi	r24, 0x60	; 96
     456:	41 f0       	breq	.+16     	; 0x468 <__vector_19+0x3e>
     458:	80 38       	cpi	r24, 0x80	; 128
     45a:	69 f0       	breq	.+26     	; 0x476 <__vector_19+0x4c>
     45c:	39 c0       	rjmp	.+114    	; 0x4d0 <__vector_19+0xa6>
     45e:	88 3a       	cpi	r24, 0xA8	; 168
     460:	f9 f0       	breq	.+62     	; 0x4a0 <__vector_19+0x76>
     462:	88 3b       	cpi	r24, 0xB8	; 184
     464:	39 f1       	breq	.+78     	; 0x4b4 <__vector_19+0x8a>
     466:	34 c0       	rjmp	.+104    	; 0x4d0 <__vector_19+0xa6>
		case 0x60:
			clearReceiveData();
     468:	0e 94 6c 01 	call	0x2d8	; 0x2d8 <clearReceiveData>
			byteCounter = 0;
     46c:	10 92 85 00 	sts	0x0085, r1	; 0x800085 <byteCounter.1974+0x1>
     470:	10 92 84 00 	sts	0x0084, r1	; 0x800084 <byteCounter.1974>
		break;
     474:	2d c0       	rjmp	.+90     	; 0x4d0 <__vector_19+0xa6>
		
		case 0x80:
			if(byteCounter < 20){
     476:	80 91 84 00 	lds	r24, 0x0084	; 0x800084 <byteCounter.1974>
     47a:	90 91 85 00 	lds	r25, 0x0085	; 0x800085 <byteCounter.1974+0x1>
     47e:	84 31       	cpi	r24, 0x14	; 20
     480:	91 05       	cpc	r25, r1
     482:	34 f5       	brge	.+76     	; 0x4d0 <__vector_19+0xa6>
				receiveData[byteCounter] = TWDR;
     484:	23 b1       	in	r18, 0x03	; 3
     486:	fc 01       	movw	r30, r24
     488:	e0 57       	subi	r30, 0x70	; 112
     48a:	ff 4f       	sbci	r31, 0xFF	; 255
     48c:	20 83       	st	Z, r18
				byteCounter++;
     48e:	01 96       	adiw	r24, 0x01	; 1
     490:	90 93 85 00 	sts	0x0085, r25	; 0x800085 <byteCounter.1974+0x1>
     494:	80 93 84 00 	sts	0x0084, r24	; 0x800084 <byteCounter.1974>
     498:	1b c0       	rjmp	.+54     	; 0x4d0 <__vector_19+0xa6>
			}
		break;
		
		case 0xA0:
			I2C_receiveInterpreter();
     49a:	0e 94 d8 01 	call	0x3b0	; 0x3b0 <I2C_receiveInterpreter>
		break;
     49e:	18 c0       	rjmp	.+48     	; 0x4d0 <__vector_19+0xa6>
		
		case 0xA8:
			arduinoDataConstructor();
     4a0:	0e 94 df 01 	call	0x3be	; 0x3be <arduinoDataConstructor>
			byteCounter = 0;
     4a4:	10 92 85 00 	sts	0x0085, r1	; 0x800085 <byteCounter.1974+0x1>
     4a8:	10 92 84 00 	sts	0x0084, r1	; 0x800084 <byteCounter.1974>
			TWDR = sendData[byteCounter];
     4ac:	80 91 d2 00 	lds	r24, 0x00D2	; 0x8000d2 <sendData>
     4b0:	83 b9       	out	0x03, r24	; 3
		break;
     4b2:	0e c0       	rjmp	.+28     	; 0x4d0 <__vector_19+0xa6>
		
		case 0xB8:
			byteCounter++;
     4b4:	80 91 84 00 	lds	r24, 0x0084	; 0x800084 <byteCounter.1974>
     4b8:	90 91 85 00 	lds	r25, 0x0085	; 0x800085 <byteCounter.1974+0x1>
     4bc:	01 96       	adiw	r24, 0x01	; 1
     4be:	90 93 85 00 	sts	0x0085, r25	; 0x800085 <byteCounter.1974+0x1>
     4c2:	80 93 84 00 	sts	0x0084, r24	; 0x800084 <byteCounter.1974>
			TWDR = sendData[byteCounter];
     4c6:	fc 01       	movw	r30, r24
     4c8:	ee 52       	subi	r30, 0x2E	; 46
     4ca:	ff 4f       	sbci	r31, 0xFF	; 255
     4cc:	80 81       	ld	r24, Z
     4ce:	83 b9       	out	0x03, r24	; 3
		break;
	}
	
	TWCR |= (1 << TWINT);
     4d0:	86 b7       	in	r24, 0x36	; 54
     4d2:	80 68       	ori	r24, 0x80	; 128
     4d4:	86 bf       	out	0x36, r24	; 54
}
     4d6:	ff 91       	pop	r31
     4d8:	ef 91       	pop	r30
     4da:	bf 91       	pop	r27
     4dc:	af 91       	pop	r26
     4de:	9f 91       	pop	r25
     4e0:	8f 91       	pop	r24
     4e2:	7f 91       	pop	r23
     4e4:	6f 91       	pop	r22
     4e6:	5f 91       	pop	r21
     4e8:	4f 91       	pop	r20
     4ea:	3f 91       	pop	r19
     4ec:	2f 91       	pop	r18
     4ee:	0f 90       	pop	r0
     4f0:	0f be       	out	0x3f, r0	; 63
     4f2:	0f 90       	pop	r0
     4f4:	1f 90       	pop	r1
     4f6:	18 95       	reti

000004f8 <init_motor_io>:
	init_motor_timer();		//Initialize the Phase correct PWM timer for the engines
}


void init_motor_io(){
	DDRD |= 0b00110000;		//Set D5 and D4 on output, these are the motors
     4f8:	81 b3       	in	r24, 0x11	; 17
     4fa:	80 63       	ori	r24, 0x30	; 48
     4fc:	81 bb       	out	0x11, r24	; 17
	DDRD &= 0b11110011;		//Set D3 and D2 on input, these are the encoders
     4fe:	81 b3       	in	r24, 0x11	; 17
     500:	83 7f       	andi	r24, 0xF3	; 243
     502:	81 bb       	out	0x11, r24	; 17
	DDRC |= 0b00001100;		//Set C2 and C3 on output, these are the motor directions
     504:	84 b3       	in	r24, 0x14	; 20
     506:	8c 60       	ori	r24, 0x0C	; 12
     508:	84 bb       	out	0x14, r24	; 20
     50a:	08 95       	ret

0000050c <init_motor_timer>:
}


void init_motor_timer(){
	TCCR1A |= (1 << COM1A1);		//Clear PWM on compare match while counting up, and set when counting down
     50c:	8f b5       	in	r24, 0x2f	; 47
     50e:	80 68       	ori	r24, 0x80	; 128
     510:	8f bd       	out	0x2f, r24	; 47
	TCCR1A |= (1 << COM1B1);		//Same for B
     512:	8f b5       	in	r24, 0x2f	; 47
     514:	80 62       	ori	r24, 0x20	; 32
     516:	8f bd       	out	0x2f, r24	; 47
	TCCR1A |= (1 << WGM11);			//Set a Phase correct ICR1 topped PWM signal
     518:	8f b5       	in	r24, 0x2f	; 47
     51a:	82 60       	ori	r24, 0x02	; 2
     51c:	8f bd       	out	0x2f, r24	; 47
	TCCR1B |= (1 << WGM13);			//---^
     51e:	8e b5       	in	r24, 0x2e	; 46
     520:	80 61       	ori	r24, 0x10	; 16
     522:	8e bd       	out	0x2e, r24	; 46
	TCCR1B |= (1 << CS10);			//Enable without prescaler
     524:	8e b5       	in	r24, 0x2e	; 46
     526:	81 60       	ori	r24, 0x01	; 1
     528:	8e bd       	out	0x2e, r24	; 46
	ICR1 = 63999;					//Set the top at 63999, this is 64000 steps aka 125Hz (250x full counter)
     52a:	8f ef       	ldi	r24, 0xFF	; 255
     52c:	99 ef       	ldi	r25, 0xF9	; 249
     52e:	97 bd       	out	0x27, r25	; 39
     530:	86 bd       	out	0x26, r24	; 38
	OCR1A = 0;						//Start the compare registers at 0, no signal
     532:	1b bc       	out	0x2b, r1	; 43
     534:	1a bc       	out	0x2a, r1	; 42
	OCR1B = 0;						//---^
     536:	19 bc       	out	0x29, r1	; 41
     538:	18 bc       	out	0x28, r1	; 40
     53a:	08 95       	ret

0000053c <init_motor>:
	}
}
//------------------------------------------------------
//Motor functions --------------------------------------
void init_motor(){
	init_motor_io();		//Initialize the necessary ports
     53c:	0e 94 7c 02 	call	0x4f8	; 0x4f8 <init_motor_io>
	init_motor_timer();		//Initialize the Phase correct PWM timer for the engines
     540:	0e 94 86 02 	call	0x50c	; 0x50c <init_motor_timer>
     544:	08 95       	ret

00000546 <motorDriver>:
	ICR1 = 63999;					//Set the top at 63999, this is 64000 steps aka 125Hz (250x full counter)
	OCR1A = 0;						//Start the compare registers at 0, no signal
	OCR1B = 0;						//---^
}

int motorDriver(struct rp6DataBP rp6Data){	
     546:	2f 92       	push	r2
     548:	3f 92       	push	r3
     54a:	4f 92       	push	r4
     54c:	5f 92       	push	r5
     54e:	6f 92       	push	r6
     550:	7f 92       	push	r7
     552:	8f 92       	push	r8
     554:	9f 92       	push	r9
     556:	af 92       	push	r10
     558:	bf 92       	push	r11
     55a:	cf 92       	push	r12
     55c:	df 92       	push	r13
     55e:	ef 92       	push	r14
     560:	ff 92       	push	r15
     562:	0f 93       	push	r16
     564:	1f 93       	push	r17
     566:	cf 93       	push	r28
     568:	df 93       	push	r29
     56a:	cd b7       	in	r28, 0x3d	; 61
     56c:	de b7       	in	r29, 0x3e	; 62
     56e:	e3 97       	sbiw	r28, 0x33	; 51
     570:	0f b6       	in	r0, 0x3f	; 63
     572:	f8 94       	cli
     574:	de bf       	out	0x3e, r29	; 62
     576:	0f be       	out	0x3f, r0	; 63
     578:	cd bf       	out	0x3d, r28	; 61
     57a:	2c 96       	adiw	r28, 0x0c	; 12
     57c:	ac ac       	ldd	r10, Y+60	; 0x3c
     57e:	bd ac       	ldd	r11, Y+61	; 0x3d
     580:	ce ac       	ldd	r12, Y+62	; 0x3e
     582:	df ac       	ldd	r13, Y+63	; 0x3f
     584:	2c 97       	sbiw	r28, 0x0c	; 12
     586:	aa 86       	std	Y+10, r10	; 0x0a
     588:	bb 86       	std	Y+11, r11	; 0x0b
     58a:	cc 86       	std	Y+12, r12	; 0x0c
     58c:	dd 86       	std	Y+13, r13	; 0x0d
     58e:	2d 96       	adiw	r28, 0x0d	; 13
     590:	bf ac       	ldd	r11, Y+63	; 0x3f
     592:	2d 97       	sbiw	r28, 0x0d	; 13
     594:	b9 86       	std	Y+9, r11	; 0x09
     596:	2e 96       	adiw	r28, 0x0e	; 14
     598:	cf ac       	ldd	r12, Y+63	; 0x3f
     59a:	2e 97       	sbiw	r28, 0x0e	; 14
     59c:	ce 86       	std	Y+14, r12	; 0x0e
     59e:	60 96       	adiw	r28, 0x10	; 16
     5a0:	8e ac       	ldd	r8, Y+62	; 0x3e
     5a2:	9f ac       	ldd	r9, Y+63	; 0x3f
     5a4:	60 97       	sbiw	r28, 0x10	; 16
     5a6:	62 96       	adiw	r28, 0x12	; 18
     5a8:	ee ac       	ldd	r14, Y+62	; 0x3e
     5aa:	ff ac       	ldd	r15, Y+63	; 0x3f
     5ac:	62 97       	sbiw	r28, 0x12	; 18
     5ae:	ff 8e       	std	Y+31, r15	; 0x1f
     5b0:	ee 8e       	std	Y+30, r14	; 0x1e
     5b2:	64 96       	adiw	r28, 0x14	; 20
     5b4:	2e ac       	ldd	r2, Y+62	; 0x3e
     5b6:	3f ac       	ldd	r3, Y+63	; 0x3f
     5b8:	64 97       	sbiw	r28, 0x14	; 20
     5ba:	68 96       	adiw	r28, 0x18	; 24
     5bc:	4c ac       	ldd	r4, Y+60	; 0x3c
     5be:	5d ac       	ldd	r5, Y+61	; 0x3d
     5c0:	6e ac       	ldd	r6, Y+62	; 0x3e
     5c2:	7f ac       	ldd	r7, Y+63	; 0x3f
     5c4:	68 97       	sbiw	r28, 0x18	; 24
	static uint32_t rightMotorSpeed = 0;
	//-------------------------
	
	//Update timer
	rp6Data.updateSpeed = rp6Data.updateSpeed * 1000;
	if(updateTimer > micros()){														//Only execute motor update code if the timer has passed
     5c6:	0e 94 cd 00 	call	0x19a	; 0x19a <micros>
     5ca:	a0 90 7c 00 	lds	r10, 0x007C	; 0x80007c <updateTimer.2015>
     5ce:	b0 90 7d 00 	lds	r11, 0x007D	; 0x80007d <updateTimer.2015+0x1>
     5d2:	c0 90 7e 00 	lds	r12, 0x007E	; 0x80007e <updateTimer.2015+0x2>
     5d6:	d0 90 7f 00 	lds	r13, 0x007F	; 0x80007f <updateTimer.2015+0x3>
     5da:	e0 90 80 00 	lds	r14, 0x0080	; 0x800080 <updateTimer.2015+0x4>
     5de:	f0 90 81 00 	lds	r15, 0x0081	; 0x800081 <updateTimer.2015+0x5>
     5e2:	00 91 82 00 	lds	r16, 0x0082	; 0x800082 <updateTimer.2015+0x6>
     5e6:	10 91 83 00 	lds	r17, 0x0083	; 0x800083 <updateTimer.2015+0x7>
     5ea:	0e 94 94 0b 	call	0x1728	; 0x1728 <__cmpdi2>
     5ee:	08 f4       	brcc	.+2      	; 0x5f2 <motorDriver+0xac>
     5f0:	85 c5       	rjmp	.+2826   	; 0x10fc <__stack+0x89d>
		return 0;
	}else{
		updateTimer = micros() + rp6Data.updateSpeed;											//If the timer has passed, set new timer and execute the code
     5f2:	0e 94 cd 00 	call	0x19a	; 0x19a <micros>
     5f6:	a2 2e       	mov	r10, r18
     5f8:	b3 2e       	mov	r11, r19
     5fa:	c4 2e       	mov	r12, r20
     5fc:	d5 2e       	mov	r13, r21
     5fe:	e6 2f       	mov	r30, r22
     600:	f7 2f       	mov	r31, r23
     602:	8e 8b       	std	Y+22, r24	; 0x16
     604:	98 a3       	std	Y+32, r25	; 0x20
     606:	a8 ee       	ldi	r26, 0xE8	; 232
     608:	b3 e0       	ldi	r27, 0x03	; 3
     60a:	a3 01       	movw	r20, r6
     60c:	92 01       	movw	r18, r4
     60e:	0e 94 52 0b 	call	0x16a4	; 0x16a4 <__muluhisi3>
     612:	7b 01       	movw	r14, r22
     614:	8c 01       	movw	r16, r24
     616:	20 e0       	ldi	r18, 0x00	; 0
     618:	30 e0       	ldi	r19, 0x00	; 0
     61a:	a9 01       	movw	r20, r18
     61c:	2d 83       	std	Y+5, r18	; 0x05
     61e:	3e 83       	std	Y+6, r19	; 0x06
     620:	4f 83       	std	Y+7, r20	; 0x07
     622:	58 87       	std	Y+8, r21	; 0x08
     624:	26 2f       	mov	r18, r22
     626:	3f 2d       	mov	r19, r15
     628:	40 2f       	mov	r20, r16
     62a:	51 2f       	mov	r21, r17
     62c:	60 e0       	ldi	r22, 0x00	; 0
     62e:	70 e0       	ldi	r23, 0x00	; 0
     630:	80 e0       	ldi	r24, 0x00	; 0
     632:	90 e0       	ldi	r25, 0x00	; 0
     634:	ee 2e       	mov	r14, r30
     636:	ff 2e       	mov	r15, r31
     638:	0e 89       	ldd	r16, Y+22	; 0x16
     63a:	18 a1       	ldd	r17, Y+32	; 0x20
     63c:	0e 94 76 0b 	call	0x16ec	; 0x16ec <__adddi3>
     640:	52 2e       	mov	r5, r18
     642:	63 2e       	mov	r6, r19
     644:	74 2e       	mov	r7, r20
     646:	5e 8b       	std	Y+22, r21	; 0x16
     648:	68 a3       	std	Y+32, r22	; 0x20
     64a:	79 a3       	std	Y+33, r23	; 0x21
     64c:	8a a3       	std	Y+34, r24	; 0x22
     64e:	9b a3       	std	Y+35, r25	; 0x23
     650:	20 93 7c 00 	sts	0x007C, r18	; 0x80007c <updateTimer.2015>
     654:	30 93 7d 00 	sts	0x007D, r19	; 0x80007d <updateTimer.2015+0x1>
     658:	40 93 7e 00 	sts	0x007E, r20	; 0x80007e <updateTimer.2015+0x2>
     65c:	50 93 7f 00 	sts	0x007F, r21	; 0x80007f <updateTimer.2015+0x3>
     660:	60 93 80 00 	sts	0x0080, r22	; 0x800080 <updateTimer.2015+0x4>
     664:	70 93 81 00 	sts	0x0081, r23	; 0x800081 <updateTimer.2015+0x5>
     668:	80 93 82 00 	sts	0x0082, r24	; 0x800082 <updateTimer.2015+0x6>
     66c:	90 93 83 00 	sts	0x0083, r25	; 0x800083 <updateTimer.2015+0x7>
	}
	
	//Remap drive speed percentage
	rp6Data.driveSpeed = (rp6Data.driveSpeed * 25600) / 100;										//The given drive speed is a percentage, remap it to a PWM compare value (Max 25600)
     670:	a0 e0       	ldi	r26, 0x00	; 0
     672:	b4 e6       	ldi	r27, 0x64	; 100
     674:	2a 85       	ldd	r18, Y+10	; 0x0a
     676:	3b 85       	ldd	r19, Y+11	; 0x0b
     678:	4c 85       	ldd	r20, Y+12	; 0x0c
     67a:	5d 85       	ldd	r21, Y+13	; 0x0d
     67c:	0e 94 52 0b 	call	0x16a4	; 0x16a4 <__muluhisi3>
     680:	24 e6       	ldi	r18, 0x64	; 100
     682:	30 e0       	ldi	r19, 0x00	; 0
     684:	40 e0       	ldi	r20, 0x00	; 0
     686:	50 e0       	ldi	r21, 0x00	; 0
     688:	0e 94 30 0b 	call	0x1660	; 0x1660 <__udivmodsi4>
	if(rp6Data.driveSpeed < rp6Data.driveSpeedThreshold){rp6Data.driveSpeed = 0;}								//If the speed is less than the threshold, the speed is set to 0 because the power is to low to drive --------- EDIT SUGGESTION: Rescale so that 1% gives the minimal amount of actual movement and 100% the max. Threshold and less doesn't participate ~Sander
     68c:	c1 01       	movw	r24, r2
     68e:	a0 e0       	ldi	r26, 0x00	; 0
     690:	b0 e0       	ldi	r27, 0x00	; 0
     692:	28 17       	cp	r18, r24
     694:	39 07       	cpc	r19, r25
     696:	4a 07       	cpc	r20, r26
     698:	5b 07       	cpc	r21, r27
     69a:	18 f4       	brcc	.+6      	; 0x6a2 <motorDriver+0x15c>
     69c:	20 e0       	ldi	r18, 0x00	; 0
     69e:	30 e0       	ldi	r19, 0x00	; 0
     6a0:	a9 01       	movw	r20, r18
	
	//Check and change drive direction
	if(rp6Data.driveDirection != currentDriveDirection && currentDriveSpeed != 0){			//If the drive direction differs from what we are currently driving and we are not standing still
     6a2:	f9 84       	ldd	r15, Y+9	; 0x09
     6a4:	ef 2d       	mov	r30, r15
     6a6:	ff 0c       	add	r15, r15
     6a8:	ff 0b       	sbc	r31, r31
     6aa:	80 91 64 00 	lds	r24, 0x0064	; 0x800064 <currentDriveDirection.2016>
     6ae:	90 91 65 00 	lds	r25, 0x0065	; 0x800065 <currentDriveDirection.2016+0x1>
     6b2:	e8 17       	cp	r30, r24
     6b4:	f9 07       	cpc	r31, r25
     6b6:	91 f1       	breq	.+100    	; 0x71c <motorDriver+0x1d6>
     6b8:	00 91 74 00 	lds	r16, 0x0074	; 0x800074 <currentDriveSpeed.2019>
     6bc:	09 83       	std	Y+1, r16	; 0x01
     6be:	10 91 75 00 	lds	r17, 0x0075	; 0x800075 <currentDriveSpeed.2019+0x1>
     6c2:	1a 83       	std	Y+2, r17	; 0x02
     6c4:	20 91 76 00 	lds	r18, 0x0076	; 0x800076 <currentDriveSpeed.2019+0x2>
     6c8:	2b 83       	std	Y+3, r18	; 0x03
     6ca:	30 91 77 00 	lds	r19, 0x0077	; 0x800077 <currentDriveSpeed.2019+0x3>
     6ce:	3c 83       	std	Y+4, r19	; 0x04
     6d0:	40 91 78 00 	lds	r20, 0x0078	; 0x800078 <currentDriveSpeed.2019+0x4>
     6d4:	4d 83       	std	Y+5, r20	; 0x05
     6d6:	50 91 79 00 	lds	r21, 0x0079	; 0x800079 <currentDriveSpeed.2019+0x5>
     6da:	5e 83       	std	Y+6, r21	; 0x06
     6dc:	60 91 7a 00 	lds	r22, 0x007A	; 0x80007a <currentDriveSpeed.2019+0x6>
     6e0:	6f 83       	std	Y+7, r22	; 0x07
     6e2:	70 91 7b 00 	lds	r23, 0x007B	; 0x80007b <currentDriveSpeed.2019+0x7>
     6e6:	78 87       	std	Y+8, r23	; 0x08
     6e8:	20 2f       	mov	r18, r16
     6ea:	31 2f       	mov	r19, r17
     6ec:	4b 81       	ldd	r20, Y+3	; 0x03
     6ee:	5c 81       	ldd	r21, Y+4	; 0x04
     6f0:	6d 81       	ldd	r22, Y+5	; 0x05
     6f2:	7e 81       	ldd	r23, Y+6	; 0x06
     6f4:	8f 81       	ldd	r24, Y+7	; 0x07
     6f6:	98 85       	ldd	r25, Y+8	; 0x08
     6f8:	a0 e0       	ldi	r26, 0x00	; 0
     6fa:	0e 94 9d 0b 	call	0x173a	; 0x173a <__cmpdi2_s8>
     6fe:	59 f4       	brne	.+22     	; 0x716 <motorDriver+0x1d0>
		rp6Data.driveSpeed = 0;																	//Set the requested speed to 0
	}else if(rp6Data.driveDirection != currentDriveDirection && currentDriveSpeed == 0){	//If the direction is wrong but we are standing still
		currentDriveDirection = rp6Data.driveDirection;											//Reverse the driving direction
     700:	f0 93 65 00 	sts	0x0065, r31	; 0x800065 <currentDriveDirection.2016+0x1>
     704:	e0 93 64 00 	sts	0x0064, r30	; 0x800064 <currentDriveDirection.2016>
		rp6Data.driveSpeed = 0;																	//And remain stationary for this update cycle
	}
	
	if(rp6Data.accelerationRate >= 5000){
     708:	88 e8       	ldi	r24, 0x88	; 136
     70a:	88 16       	cp	r8, r24
     70c:	83 e1       	ldi	r24, 0x13	; 19
     70e:	98 06       	cpc	r9, r24
     710:	08 f4       	brcc	.+2      	; 0x714 <motorDriver+0x1ce>
     712:	71 c0       	rjmp	.+226    	; 0x7f6 <motorDriver+0x2b0>
     714:	09 c0       	rjmp	.+18     	; 0x728 <motorDriver+0x1e2>
	rp6Data.driveSpeed = (rp6Data.driveSpeed * 25600) / 100;										//The given drive speed is a percentage, remap it to a PWM compare value (Max 25600)
	if(rp6Data.driveSpeed < rp6Data.driveSpeedThreshold){rp6Data.driveSpeed = 0;}								//If the speed is less than the threshold, the speed is set to 0 because the power is to low to drive --------- EDIT SUGGESTION: Rescale so that 1% gives the minimal amount of actual movement and 100% the max. Threshold and less doesn't participate ~Sander
	
	//Check and change drive direction
	if(rp6Data.driveDirection != currentDriveDirection && currentDriveSpeed != 0){			//If the drive direction differs from what we are currently driving and we are not standing still
		rp6Data.driveSpeed = 0;																	//Set the requested speed to 0
     716:	20 e0       	ldi	r18, 0x00	; 0
     718:	30 e0       	ldi	r19, 0x00	; 0
     71a:	a9 01       	movw	r20, r18
	}else if(rp6Data.driveDirection != currentDriveDirection && currentDriveSpeed == 0){	//If the direction is wrong but we are standing still
		currentDriveDirection = rp6Data.driveDirection;											//Reverse the driving direction
		rp6Data.driveSpeed = 0;																	//And remain stationary for this update cycle
	}
	
	if(rp6Data.accelerationRate >= 5000){
     71c:	98 e8       	ldi	r25, 0x88	; 136
     71e:	89 16       	cp	r8, r25
     720:	93 e1       	ldi	r25, 0x13	; 19
     722:	99 06       	cpc	r9, r25
     724:	b8 f0       	brcs	.+46     	; 0x754 <motorDriver+0x20e>
     726:	03 c0       	rjmp	.+6      	; 0x72e <motorDriver+0x1e8>
	//Check and change drive direction
	if(rp6Data.driveDirection != currentDriveDirection && currentDriveSpeed != 0){			//If the drive direction differs from what we are currently driving and we are not standing still
		rp6Data.driveSpeed = 0;																	//Set the requested speed to 0
	}else if(rp6Data.driveDirection != currentDriveDirection && currentDriveSpeed == 0){	//If the direction is wrong but we are standing still
		currentDriveDirection = rp6Data.driveDirection;											//Reverse the driving direction
		rp6Data.driveSpeed = 0;																	//And remain stationary for this update cycle
     728:	20 e0       	ldi	r18, 0x00	; 0
     72a:	30 e0       	ldi	r19, 0x00	; 0
     72c:	a9 01       	movw	r20, r18
	}
	
	if(rp6Data.accelerationRate >= 5000){
		currentDriveSpeed = rp6Data.driveSpeed;
     72e:	89 01       	movw	r16, r18
     730:	9a 01       	movw	r18, r20
     732:	00 93 74 00 	sts	0x0074, r16	; 0x800074 <currentDriveSpeed.2019>
     736:	10 93 75 00 	sts	0x0075, r17	; 0x800075 <currentDriveSpeed.2019+0x1>
     73a:	20 93 76 00 	sts	0x0076, r18	; 0x800076 <currentDriveSpeed.2019+0x2>
     73e:	30 93 77 00 	sts	0x0077, r19	; 0x800077 <currentDriveSpeed.2019+0x3>
     742:	10 92 78 00 	sts	0x0078, r1	; 0x800078 <currentDriveSpeed.2019+0x4>
     746:	10 92 79 00 	sts	0x0079, r1	; 0x800079 <currentDriveSpeed.2019+0x5>
     74a:	10 92 7a 00 	sts	0x007A, r1	; 0x80007a <currentDriveSpeed.2019+0x6>
     74e:	10 92 7b 00 	sts	0x007B, r1	; 0x80007b <currentDriveSpeed.2019+0x7>
     752:	dc c1       	rjmp	.+952    	; 0xb0c <__stack+0x2ad>
	}else{
		//Smoothly adjust current drive speed to requested drive speed
		speedDifference = sqrt(pow((rp6Data.driveSpeed - currentDriveSpeed), 2));				//Calculate the speed difference (always positive)
     754:	59 01       	movw	r10, r18
     756:	6a 01       	movw	r12, r20
     758:	e1 2c       	mov	r14, r1
     75a:	f1 2c       	mov	r15, r1
     75c:	87 01       	movw	r16, r14
     75e:	29 83       	std	Y+1, r18	; 0x01
     760:	ba 82       	std	Y+2, r11	; 0x02
     762:	cb 82       	std	Y+3, r12	; 0x03
     764:	dc 82       	std	Y+4, r13	; 0x04
     766:	ed 82       	std	Y+5, r14	; 0x05
     768:	fe 82       	std	Y+6, r15	; 0x06
     76a:	0f 83       	std	Y+7, r16	; 0x07
     76c:	18 87       	std	Y+8, r17	; 0x08
     76e:	b0 90 74 00 	lds	r11, 0x0074	; 0x800074 <currentDriveSpeed.2019>
     772:	b9 86       	std	Y+9, r11	; 0x09
     774:	c0 90 75 00 	lds	r12, 0x0075	; 0x800075 <currentDriveSpeed.2019+0x1>
     778:	ca 86       	std	Y+10, r12	; 0x0a
     77a:	d0 90 76 00 	lds	r13, 0x0076	; 0x800076 <currentDriveSpeed.2019+0x2>
     77e:	dc a6       	std	Y+44, r13	; 0x2c
     780:	e0 90 77 00 	lds	r14, 0x0077	; 0x800077 <currentDriveSpeed.2019+0x3>
     784:	ed a6       	std	Y+45, r14	; 0x2d
     786:	f0 90 78 00 	lds	r15, 0x0078	; 0x800078 <currentDriveSpeed.2019+0x4>
     78a:	fe a6       	std	Y+46, r15	; 0x2e
     78c:	00 91 79 00 	lds	r16, 0x0079	; 0x800079 <currentDriveSpeed.2019+0x5>
     790:	0f a7       	std	Y+47, r16	; 0x2f
     792:	10 91 7a 00 	lds	r17, 0x007A	; 0x80007a <currentDriveSpeed.2019+0x6>
     796:	18 ab       	std	Y+48, r17	; 0x30
     798:	40 90 7b 00 	lds	r4, 0x007B	; 0x80007b <currentDriveSpeed.2019+0x7>
     79c:	2a 2d       	mov	r18, r10
     79e:	3a 81       	ldd	r19, Y+2	; 0x02
     7a0:	4b 81       	ldd	r20, Y+3	; 0x03
     7a2:	5c 81       	ldd	r21, Y+4	; 0x04
     7a4:	60 e0       	ldi	r22, 0x00	; 0
     7a6:	70 e0       	ldi	r23, 0x00	; 0
     7a8:	80 e0       	ldi	r24, 0x00	; 0
     7aa:	90 e0       	ldi	r25, 0x00	; 0
     7ac:	ab 2c       	mov	r10, r11
     7ae:	bc 2c       	mov	r11, r12
     7b0:	cd 2c       	mov	r12, r13
     7b2:	de 2c       	mov	r13, r14
     7b4:	ef 2c       	mov	r14, r15
     7b6:	f0 2e       	mov	r15, r16
     7b8:	01 2f       	mov	r16, r17
     7ba:	14 2d       	mov	r17, r4
     7bc:	0e 94 8b 0b 	call	0x1716	; 0x1716 <__subdi3>
     7c0:	2c a3       	std	Y+36, r18	; 0x24
     7c2:	39 ab       	std	Y+49, r19	; 0x31
     7c4:	4a ab       	std	Y+50, r20	; 0x32
     7c6:	5b ab       	std	Y+51, r21	; 0x33
     7c8:	a6 2e       	mov	r10, r22
     7ca:	b7 2e       	mov	r11, r23
     7cc:	08 2f       	mov	r16, r24
     7ce:	19 2f       	mov	r17, r25
     7d0:	0e 94 c3 09 	call	0x1386	; 0x1386 <__floatdisf>
     7d4:	6b 01       	movw	r12, r22
     7d6:	7c 01       	movw	r14, r24
     7d8:	a7 01       	movw	r20, r14
     7da:	96 01       	movw	r18, r12
     7dc:	c7 01       	movw	r24, r14
     7de:	b6 01       	movw	r22, r12
     7e0:	0e 94 40 0a 	call	0x1480	; 0x1480 <__mulsf3>
     7e4:	0e 94 b3 0a 	call	0x1566	; 0x1566 <sqrt>
	
		if(speedDifference < 2000){														//If the difference is less than 2000
     7e8:	0e 94 94 09 	call	0x1328	; 0x1328 <__fixunssfsi>
     7ec:	60 3d       	cpi	r22, 0xD0	; 208
     7ee:	77 40       	sbci	r23, 0x07	; 7
     7f0:	81 05       	cpc	r24, r1
     7f2:	91 05       	cpc	r25, r1
     7f4:	c8 f4       	brcc	.+50     	; 0x828 <motorDriver+0x2e2>
			currentDriveSpeed = rp6Data.driveSpeed;													//Set the current speed to the requested value
     7f6:	39 81       	ldd	r19, Y+1	; 0x01
     7f8:	30 93 74 00 	sts	0x0074, r19	; 0x800074 <currentDriveSpeed.2019>
     7fc:	4a 81       	ldd	r20, Y+2	; 0x02
     7fe:	40 93 75 00 	sts	0x0075, r20	; 0x800075 <currentDriveSpeed.2019+0x1>
     802:	5b 81       	ldd	r21, Y+3	; 0x03
     804:	50 93 76 00 	sts	0x0076, r21	; 0x800076 <currentDriveSpeed.2019+0x2>
     808:	6c 81       	ldd	r22, Y+4	; 0x04
     80a:	60 93 77 00 	sts	0x0077, r22	; 0x800077 <currentDriveSpeed.2019+0x3>
     80e:	7d 81       	ldd	r23, Y+5	; 0x05
     810:	70 93 78 00 	sts	0x0078, r23	; 0x800078 <currentDriveSpeed.2019+0x4>
     814:	8e 81       	ldd	r24, Y+6	; 0x06
     816:	80 93 79 00 	sts	0x0079, r24	; 0x800079 <currentDriveSpeed.2019+0x5>
     81a:	9f 81       	ldd	r25, Y+7	; 0x07
     81c:	90 93 7a 00 	sts	0x007A, r25	; 0x80007a <currentDriveSpeed.2019+0x6>
     820:	a8 85       	ldd	r26, Y+8	; 0x08
     822:	a0 93 7b 00 	sts	0x007B, r26	; 0x80007b <currentDriveSpeed.2019+0x7>
     826:	72 c1       	rjmp	.+740    	; 0xb0c <__stack+0x2ad>
		}else{																			//If the difference is more than 2000
			if(rp6Data.driveSpeed - currentDriveSpeed < 0){											//Check if we need to accelerate or decelerate, if we need to decelerate
     828:	2c a1       	ldd	r18, Y+36	; 0x24
     82a:	39 a9       	ldd	r19, Y+49	; 0x31
     82c:	4a a9       	ldd	r20, Y+50	; 0x32
     82e:	5b a9       	ldd	r21, Y+51	; 0x33
     830:	6a 2d       	mov	r22, r10
     832:	7b 2d       	mov	r23, r11
     834:	80 2f       	mov	r24, r16
     836:	91 2f       	mov	r25, r17
     838:	a0 e0       	ldi	r26, 0x00	; 0
     83a:	0e 94 9d 0b 	call	0x173a	; 0x173a <__cmpdi2_s8>
     83e:	0c f0       	brlt	.+2      	; 0x842 <motorDriver+0x2fc>
     840:	a3 c0       	rjmp	.+326    	; 0x988 <__stack+0x129>
				if(currentDriveSpeed < rp6Data.driveSpeedThreshold){									//If the speed is less than the threshold
     842:	51 01       	movw	r10, r2
     844:	c1 2c       	mov	r12, r1
     846:	d1 2c       	mov	r13, r1
     848:	e1 2c       	mov	r14, r1
     84a:	f1 2c       	mov	r15, r1
     84c:	87 01       	movw	r16, r14
     84e:	29 85       	ldd	r18, Y+9	; 0x09
     850:	3a 85       	ldd	r19, Y+10	; 0x0a
     852:	4c a5       	ldd	r20, Y+44	; 0x2c
     854:	5d a5       	ldd	r21, Y+45	; 0x2d
     856:	6e a5       	ldd	r22, Y+46	; 0x2e
     858:	7f a5       	ldd	r23, Y+47	; 0x2f
     85a:	88 a9       	ldd	r24, Y+48	; 0x30
     85c:	94 2d       	mov	r25, r4
     85e:	2c a2       	std	Y+36, r2	; 0x24
     860:	bd a2       	std	Y+37, r11	; 0x25
     862:	ce a2       	std	Y+38, r12	; 0x26
     864:	df a2       	std	Y+39, r13	; 0x27
     866:	e8 a6       	std	Y+40, r14	; 0x28
     868:	f9 a6       	std	Y+41, r15	; 0x29
     86a:	0a a7       	std	Y+42, r16	; 0x2a
     86c:	1b a7       	std	Y+43, r17	; 0x2b
     86e:	c1 2c       	mov	r12, r1
     870:	d1 2c       	mov	r13, r1
     872:	e1 2c       	mov	r14, r1
     874:	f1 2c       	mov	r15, r1
     876:	00 e0       	ldi	r16, 0x00	; 0
     878:	10 e0       	ldi	r17, 0x00	; 0
     87a:	0e 94 94 0b 	call	0x1728	; 0x1728 <__cmpdi2>
     87e:	cc f4       	brge	.+50     	; 0x8b2 <__stack+0x53>
					currentDriveSpeed = rp6Data.driveSpeed;													//Set the speed to the requested value (Probably 0)
     880:	b9 81       	ldd	r27, Y+1	; 0x01
     882:	b0 93 74 00 	sts	0x0074, r27	; 0x800074 <currentDriveSpeed.2019>
     886:	ea 81       	ldd	r30, Y+2	; 0x02
     888:	e0 93 75 00 	sts	0x0075, r30	; 0x800075 <currentDriveSpeed.2019+0x1>
     88c:	ab 80       	ldd	r10, Y+3	; 0x03
     88e:	a0 92 76 00 	sts	0x0076, r10	; 0x800076 <currentDriveSpeed.2019+0x2>
     892:	bc 80       	ldd	r11, Y+4	; 0x04
     894:	b0 92 77 00 	sts	0x0077, r11	; 0x800077 <currentDriveSpeed.2019+0x3>
     898:	cd 80       	ldd	r12, Y+5	; 0x05
     89a:	c0 92 78 00 	sts	0x0078, r12	; 0x800078 <currentDriveSpeed.2019+0x4>
     89e:	de 80       	ldd	r13, Y+6	; 0x06
     8a0:	d0 92 79 00 	sts	0x0079, r13	; 0x800079 <currentDriveSpeed.2019+0x5>
     8a4:	ef 80       	ldd	r14, Y+7	; 0x07
     8a6:	e0 92 7a 00 	sts	0x007A, r14	; 0x80007a <currentDriveSpeed.2019+0x6>
     8aa:	f8 84       	ldd	r15, Y+8	; 0x08
     8ac:	f0 92 7b 00 	sts	0x007B, r15	; 0x80007b <currentDriveSpeed.2019+0x7>
     8b0:	2d c1       	rjmp	.+602    	; 0xb0c <__stack+0x2ad>
				}else{																			//If the current speed is higher than 5000
					if(rp6Data.accelerationRate > rp6Data.driveSpeedThreshold){rp6Data.accelerationRate = rp6Data.driveSpeedThreshold - 300;}
     8b2:	28 14       	cp	r2, r8
     8b4:	39 04       	cpc	r3, r9
     8b6:	28 f4       	brcc	.+10     	; 0x8c2 <__stack+0x63>
     8b8:	41 01       	movw	r8, r2
     8ba:	0c e2       	ldi	r16, 0x2C	; 44
     8bc:	80 1a       	sub	r8, r16
     8be:	01 e0       	ldi	r16, 0x01	; 1
     8c0:	90 0a       	sbc	r9, r16
					if(currentDriveSpeed < 7000){currentDriveSpeed -= rp6Data.accelerationRate;}
     8c2:	29 85       	ldd	r18, Y+9	; 0x09
     8c4:	3a 85       	ldd	r19, Y+10	; 0x0a
     8c6:	4c a5       	ldd	r20, Y+44	; 0x2c
     8c8:	5d a5       	ldd	r21, Y+45	; 0x2d
     8ca:	6e a5       	ldd	r22, Y+46	; 0x2e
     8cc:	7f a5       	ldd	r23, Y+47	; 0x2f
     8ce:	88 a9       	ldd	r24, Y+48	; 0x30
     8d0:	94 2d       	mov	r25, r4
     8d2:	27 35       	cpi	r18, 0x57	; 87
     8d4:	1b e1       	ldi	r17, 0x1B	; 27
     8d6:	31 07       	cpc	r19, r17
     8d8:	41 05       	cpc	r20, r1
     8da:	51 05       	cpc	r21, r1
     8dc:	61 05       	cpc	r22, r1
     8de:	71 05       	cpc	r23, r1
     8e0:	81 05       	cpc	r24, r1
     8e2:	91 05       	cpc	r25, r1
     8e4:	09 f0       	breq	.+2      	; 0x8e8 <__stack+0x89>
     8e6:	2c f5       	brge	.+74     	; 0x932 <__stack+0xd3>
     8e8:	64 01       	movw	r12, r8
     8ea:	00 e0       	ldi	r16, 0x00	; 0
     8ec:	10 e0       	ldi	r17, 0x00	; 0
     8ee:	98 01       	movw	r18, r16
     8f0:	0d 83       	std	Y+5, r16	; 0x05
     8f2:	1e 83       	std	Y+6, r17	; 0x06
     8f4:	2f 83       	std	Y+7, r18	; 0x07
     8f6:	38 87       	std	Y+8, r19	; 0x08
     8f8:	29 85       	ldd	r18, Y+9	; 0x09
     8fa:	3a 85       	ldd	r19, Y+10	; 0x0a
     8fc:	a8 2c       	mov	r10, r8
     8fe:	bd 2c       	mov	r11, r13
     900:	c1 2c       	mov	r12, r1
     902:	d1 2c       	mov	r13, r1
     904:	e1 2c       	mov	r14, r1
     906:	f1 2c       	mov	r15, r1
     908:	00 e0       	ldi	r16, 0x00	; 0
     90a:	10 e0       	ldi	r17, 0x00	; 0
     90c:	0e 94 8b 0b 	call	0x1716	; 0x1716 <__subdi3>
     910:	20 93 74 00 	sts	0x0074, r18	; 0x800074 <currentDriveSpeed.2019>
     914:	30 93 75 00 	sts	0x0075, r19	; 0x800075 <currentDriveSpeed.2019+0x1>
     918:	40 93 76 00 	sts	0x0076, r20	; 0x800076 <currentDriveSpeed.2019+0x2>
     91c:	50 93 77 00 	sts	0x0077, r21	; 0x800077 <currentDriveSpeed.2019+0x3>
     920:	60 93 78 00 	sts	0x0078, r22	; 0x800078 <currentDriveSpeed.2019+0x4>
     924:	70 93 79 00 	sts	0x0079, r23	; 0x800079 <currentDriveSpeed.2019+0x5>
     928:	80 93 7a 00 	sts	0x007A, r24	; 0x80007a <currentDriveSpeed.2019+0x6>
     92c:	90 93 7b 00 	sts	0x007B, r25	; 0x80007b <currentDriveSpeed.2019+0x7>
     930:	ed c0       	rjmp	.+474    	; 0xb0c <__stack+0x2ad>
					else{currentDriveSpeed -= rp6Data.accelerationRate;}							//Decelerate with a given percentage of the current speed, determined by accelerationRate
     932:	74 01       	movw	r14, r8
     934:	20 e0       	ldi	r18, 0x00	; 0
     936:	30 e0       	ldi	r19, 0x00	; 0
     938:	a9 01       	movw	r20, r18
     93a:	2d 83       	std	Y+5, r18	; 0x05
     93c:	3e 83       	std	Y+6, r19	; 0x06
     93e:	4f 83       	std	Y+7, r20	; 0x07
     940:	58 87       	std	Y+8, r21	; 0x08
     942:	29 85       	ldd	r18, Y+9	; 0x09
     944:	3a 85       	ldd	r19, Y+10	; 0x0a
     946:	4c a5       	ldd	r20, Y+44	; 0x2c
     948:	5d a5       	ldd	r21, Y+45	; 0x2d
     94a:	6e a5       	ldd	r22, Y+46	; 0x2e
     94c:	7f a5       	ldd	r23, Y+47	; 0x2f
     94e:	88 a9       	ldd	r24, Y+48	; 0x30
     950:	94 2d       	mov	r25, r4
     952:	a8 2c       	mov	r10, r8
     954:	bf 2c       	mov	r11, r15
     956:	c1 2c       	mov	r12, r1
     958:	d1 2c       	mov	r13, r1
     95a:	e1 2c       	mov	r14, r1
     95c:	f1 2c       	mov	r15, r1
     95e:	00 e0       	ldi	r16, 0x00	; 0
     960:	10 e0       	ldi	r17, 0x00	; 0
     962:	0e 94 8b 0b 	call	0x1716	; 0x1716 <__subdi3>
     966:	20 93 74 00 	sts	0x0074, r18	; 0x800074 <currentDriveSpeed.2019>
     96a:	30 93 75 00 	sts	0x0075, r19	; 0x800075 <currentDriveSpeed.2019+0x1>
     96e:	40 93 76 00 	sts	0x0076, r20	; 0x800076 <currentDriveSpeed.2019+0x2>
     972:	50 93 77 00 	sts	0x0077, r21	; 0x800077 <currentDriveSpeed.2019+0x3>
     976:	60 93 78 00 	sts	0x0078, r22	; 0x800078 <currentDriveSpeed.2019+0x4>
     97a:	70 93 79 00 	sts	0x0079, r23	; 0x800079 <currentDriveSpeed.2019+0x5>
     97e:	80 93 7a 00 	sts	0x007A, r24	; 0x80007a <currentDriveSpeed.2019+0x6>
     982:	90 93 7b 00 	sts	0x007B, r25	; 0x80007b <currentDriveSpeed.2019+0x7>
     986:	c2 c0       	rjmp	.+388    	; 0xb0c <__stack+0x2ad>
				}
			}else{																			//If we need to accelerate
				if(currentDriveSpeed < rp6Data.driveSpeedThreshold){									//And we are still at a speed lower than the threshold
     988:	81 01       	movw	r16, r2
     98a:	20 e0       	ldi	r18, 0x00	; 0
     98c:	30 e0       	ldi	r19, 0x00	; 0
     98e:	40 e0       	ldi	r20, 0x00	; 0
     990:	50 e0       	ldi	r21, 0x00	; 0
     992:	ba 01       	movw	r22, r20
     994:	2c a2       	std	Y+36, r2	; 0x24
     996:	1d a3       	std	Y+37, r17	; 0x25
     998:	2e a3       	std	Y+38, r18	; 0x26
     99a:	3f a3       	std	Y+39, r19	; 0x27
     99c:	48 a7       	std	Y+40, r20	; 0x28
     99e:	59 a7       	std	Y+41, r21	; 0x29
     9a0:	6a a7       	std	Y+42, r22	; 0x2a
     9a2:	7b a7       	std	Y+43, r23	; 0x2b
     9a4:	29 85       	ldd	r18, Y+9	; 0x09
     9a6:	3a 85       	ldd	r19, Y+10	; 0x0a
     9a8:	4c a5       	ldd	r20, Y+44	; 0x2c
     9aa:	5d a5       	ldd	r21, Y+45	; 0x2d
     9ac:	6e a5       	ldd	r22, Y+46	; 0x2e
     9ae:	7f a5       	ldd	r23, Y+47	; 0x2f
     9b0:	88 a9       	ldd	r24, Y+48	; 0x30
     9b2:	94 2d       	mov	r25, r4
     9b4:	a2 2c       	mov	r10, r2
     9b6:	b1 2e       	mov	r11, r17
     9b8:	c1 2c       	mov	r12, r1
     9ba:	d1 2c       	mov	r13, r1
     9bc:	e1 2c       	mov	r14, r1
     9be:	f1 2c       	mov	r15, r1
     9c0:	00 e0       	ldi	r16, 0x00	; 0
     9c2:	10 e0       	ldi	r17, 0x00	; 0
     9c4:	0e 94 94 0b 	call	0x1728	; 0x1728 <__cmpdi2>
     9c8:	9c f4       	brge	.+38     	; 0x9f0 <__stack+0x191>
					currentDriveSpeed += rp6Data.driveSpeedThreshold;										//Speed up with the minimum threshold
     9ca:	0e 94 76 0b 	call	0x16ec	; 0x16ec <__adddi3>
     9ce:	20 93 74 00 	sts	0x0074, r18	; 0x800074 <currentDriveSpeed.2019>
     9d2:	30 93 75 00 	sts	0x0075, r19	; 0x800075 <currentDriveSpeed.2019+0x1>
     9d6:	40 93 76 00 	sts	0x0076, r20	; 0x800076 <currentDriveSpeed.2019+0x2>
     9da:	50 93 77 00 	sts	0x0077, r21	; 0x800077 <currentDriveSpeed.2019+0x3>
     9de:	60 93 78 00 	sts	0x0078, r22	; 0x800078 <currentDriveSpeed.2019+0x4>
     9e2:	70 93 79 00 	sts	0x0079, r23	; 0x800079 <currentDriveSpeed.2019+0x5>
     9e6:	80 93 7a 00 	sts	0x007A, r24	; 0x80007a <currentDriveSpeed.2019+0x6>
     9ea:	90 93 7b 00 	sts	0x007B, r25	; 0x80007b <currentDriveSpeed.2019+0x7>
     9ee:	8e c0       	rjmp	.+284    	; 0xb0c <__stack+0x2ad>
				}else{																			//If we are at a speed higher than the threshold
				if(rp6Data.accelerationRate > rp6Data.driveSpeedThreshold){rp6Data.accelerationRate = rp6Data.driveSpeedThreshold - 300;}
     9f0:	28 14       	cp	r2, r8
     9f2:	39 04       	cpc	r3, r9
     9f4:	28 f4       	brcc	.+10     	; 0xa00 <__stack+0x1a1>
     9f6:	41 01       	movw	r8, r2
     9f8:	1c e2       	ldi	r17, 0x2C	; 44
     9fa:	81 1a       	sub	r8, r17
     9fc:	11 e0       	ldi	r17, 0x01	; 1
     9fe:	91 0a       	sbc	r9, r17
					if(currentDriveSpeed < 7000){currentDriveSpeed += rp6Data.accelerationRate/4;}
     a00:	29 85       	ldd	r18, Y+9	; 0x09
     a02:	3a 85       	ldd	r19, Y+10	; 0x0a
     a04:	4c a5       	ldd	r20, Y+44	; 0x2c
     a06:	5d a5       	ldd	r21, Y+45	; 0x2d
     a08:	6e a5       	ldd	r22, Y+46	; 0x2e
     a0a:	7f a5       	ldd	r23, Y+47	; 0x2f
     a0c:	88 a9       	ldd	r24, Y+48	; 0x30
     a0e:	94 2d       	mov	r25, r4
     a10:	27 35       	cpi	r18, 0x57	; 87
     a12:	3b 41       	sbci	r19, 0x1B	; 27
     a14:	41 05       	cpc	r20, r1
     a16:	51 05       	cpc	r21, r1
     a18:	61 05       	cpc	r22, r1
     a1a:	71 05       	cpc	r23, r1
     a1c:	81 05       	cpc	r24, r1
     a1e:	91 05       	cpc	r25, r1
     a20:	09 f0       	breq	.+2      	; 0xa24 <__stack+0x1c5>
     a22:	3c f5       	brge	.+78     	; 0xa72 <__stack+0x213>
     a24:	96 94       	lsr	r9
     a26:	87 94       	ror	r8
     a28:	96 94       	lsr	r9
     a2a:	87 94       	ror	r8
     a2c:	28 2d       	mov	r18, r8
     a2e:	39 2d       	mov	r19, r9
     a30:	40 e0       	ldi	r20, 0x00	; 0
     a32:	50 e0       	ldi	r21, 0x00	; 0
     a34:	60 e0       	ldi	r22, 0x00	; 0
     a36:	70 e0       	ldi	r23, 0x00	; 0
     a38:	80 e0       	ldi	r24, 0x00	; 0
     a3a:	90 e0       	ldi	r25, 0x00	; 0
     a3c:	a9 84       	ldd	r10, Y+9	; 0x09
     a3e:	ba 84       	ldd	r11, Y+10	; 0x0a
     a40:	cc a4       	ldd	r12, Y+44	; 0x2c
     a42:	dd a4       	ldd	r13, Y+45	; 0x2d
     a44:	ee a4       	ldd	r14, Y+46	; 0x2e
     a46:	ff a4       	ldd	r15, Y+47	; 0x2f
     a48:	08 a9       	ldd	r16, Y+48	; 0x30
     a4a:	14 2d       	mov	r17, r4
     a4c:	0e 94 76 0b 	call	0x16ec	; 0x16ec <__adddi3>
     a50:	20 93 74 00 	sts	0x0074, r18	; 0x800074 <currentDriveSpeed.2019>
     a54:	30 93 75 00 	sts	0x0075, r19	; 0x800075 <currentDriveSpeed.2019+0x1>
     a58:	40 93 76 00 	sts	0x0076, r20	; 0x800076 <currentDriveSpeed.2019+0x2>
     a5c:	50 93 77 00 	sts	0x0077, r21	; 0x800077 <currentDriveSpeed.2019+0x3>
     a60:	60 93 78 00 	sts	0x0078, r22	; 0x800078 <currentDriveSpeed.2019+0x4>
     a64:	70 93 79 00 	sts	0x0079, r23	; 0x800079 <currentDriveSpeed.2019+0x5>
     a68:	80 93 7a 00 	sts	0x007A, r24	; 0x80007a <currentDriveSpeed.2019+0x6>
     a6c:	90 93 7b 00 	sts	0x007B, r25	; 0x80007b <currentDriveSpeed.2019+0x7>
     a70:	22 c0       	rjmp	.+68     	; 0xab6 <__stack+0x257>
					else{currentDriveSpeed += rp6Data.accelerationRate;}							//Accelerate with a percentage of the current speed, determined by accelerationRate
     a72:	28 2d       	mov	r18, r8
     a74:	39 2d       	mov	r19, r9
     a76:	40 e0       	ldi	r20, 0x00	; 0
     a78:	50 e0       	ldi	r21, 0x00	; 0
     a7a:	60 e0       	ldi	r22, 0x00	; 0
     a7c:	70 e0       	ldi	r23, 0x00	; 0
     a7e:	80 e0       	ldi	r24, 0x00	; 0
     a80:	90 e0       	ldi	r25, 0x00	; 0
     a82:	a9 84       	ldd	r10, Y+9	; 0x09
     a84:	ba 84       	ldd	r11, Y+10	; 0x0a
     a86:	cc a4       	ldd	r12, Y+44	; 0x2c
     a88:	dd a4       	ldd	r13, Y+45	; 0x2d
     a8a:	ee a4       	ldd	r14, Y+46	; 0x2e
     a8c:	ff a4       	ldd	r15, Y+47	; 0x2f
     a8e:	08 a9       	ldd	r16, Y+48	; 0x30
     a90:	14 2d       	mov	r17, r4
     a92:	0e 94 76 0b 	call	0x16ec	; 0x16ec <__adddi3>
     a96:	20 93 74 00 	sts	0x0074, r18	; 0x800074 <currentDriveSpeed.2019>
     a9a:	30 93 75 00 	sts	0x0075, r19	; 0x800075 <currentDriveSpeed.2019+0x1>
     a9e:	40 93 76 00 	sts	0x0076, r20	; 0x800076 <currentDriveSpeed.2019+0x2>
     aa2:	50 93 77 00 	sts	0x0077, r21	; 0x800077 <currentDriveSpeed.2019+0x3>
     aa6:	60 93 78 00 	sts	0x0078, r22	; 0x800078 <currentDriveSpeed.2019+0x4>
     aaa:	70 93 79 00 	sts	0x0079, r23	; 0x800079 <currentDriveSpeed.2019+0x5>
     aae:	80 93 7a 00 	sts	0x007A, r24	; 0x80007a <currentDriveSpeed.2019+0x6>
     ab2:	90 93 7b 00 	sts	0x007B, r25	; 0x80007b <currentDriveSpeed.2019+0x7>
					if(currentDriveSpeed > rp6Data.driveSpeed){currentDriveSpeed = rp6Data.driveSpeed;}				//If we overshot the requested speed, set the current speed to the requested value (Can't be much of a difference)
     ab6:	a0 90 74 00 	lds	r10, 0x0074	; 0x800074 <currentDriveSpeed.2019>
     aba:	b0 90 75 00 	lds	r11, 0x0075	; 0x800075 <currentDriveSpeed.2019+0x1>
     abe:	c0 90 76 00 	lds	r12, 0x0076	; 0x800076 <currentDriveSpeed.2019+0x2>
     ac2:	d0 90 77 00 	lds	r13, 0x0077	; 0x800077 <currentDriveSpeed.2019+0x3>
     ac6:	e0 90 78 00 	lds	r14, 0x0078	; 0x800078 <currentDriveSpeed.2019+0x4>
     aca:	f0 90 79 00 	lds	r15, 0x0079	; 0x800079 <currentDriveSpeed.2019+0x5>
     ace:	00 91 7a 00 	lds	r16, 0x007A	; 0x80007a <currentDriveSpeed.2019+0x6>
     ad2:	10 91 7b 00 	lds	r17, 0x007B	; 0x80007b <currentDriveSpeed.2019+0x7>
     ad6:	29 81       	ldd	r18, Y+1	; 0x01
     ad8:	3a 81       	ldd	r19, Y+2	; 0x02
     ada:	4b 81       	ldd	r20, Y+3	; 0x03
     adc:	5c 81       	ldd	r21, Y+4	; 0x04
     ade:	6d 81       	ldd	r22, Y+5	; 0x05
     ae0:	7e 81       	ldd	r23, Y+6	; 0x06
     ae2:	8f 81       	ldd	r24, Y+7	; 0x07
     ae4:	98 85       	ldd	r25, Y+8	; 0x08
     ae6:	0e 94 94 0b 	call	0x1728	; 0x1728 <__cmpdi2>
     aea:	84 f4       	brge	.+32     	; 0xb0c <__stack+0x2ad>
     aec:	20 93 74 00 	sts	0x0074, r18	; 0x800074 <currentDriveSpeed.2019>
     af0:	30 93 75 00 	sts	0x0075, r19	; 0x800075 <currentDriveSpeed.2019+0x1>
     af4:	40 93 76 00 	sts	0x0076, r20	; 0x800076 <currentDriveSpeed.2019+0x2>
     af8:	50 93 77 00 	sts	0x0077, r21	; 0x800077 <currentDriveSpeed.2019+0x3>
     afc:	60 93 78 00 	sts	0x0078, r22	; 0x800078 <currentDriveSpeed.2019+0x4>
     b00:	70 93 79 00 	sts	0x0079, r23	; 0x800079 <currentDriveSpeed.2019+0x5>
     b04:	80 93 7a 00 	sts	0x007A, r24	; 0x80007a <currentDriveSpeed.2019+0x6>
     b08:	90 93 7b 00 	sts	0x007B, r25	; 0x80007b <currentDriveSpeed.2019+0x7>
		}
	}
	
	
	//Split motor drive direction and speed
	leftMotorDirection = currentDriveDirection;
     b0c:	80 91 64 00 	lds	r24, 0x0064	; 0x800064 <currentDriveDirection.2016>
     b10:	90 91 65 00 	lds	r25, 0x0065	; 0x800065 <currentDriveDirection.2016+0x1>
     b14:	90 93 63 00 	sts	0x0063, r25	; 0x800063 <leftMotorDirection.2020+0x1>
     b18:	80 93 62 00 	sts	0x0062, r24	; 0x800062 <leftMotorDirection.2020>
	rightMotorDirection = currentDriveDirection;
     b1c:	90 93 61 00 	sts	0x0061, r25	; 0x800061 <__data_start+0x1>
     b20:	80 93 60 00 	sts	0x0060, r24	; 0x800060 <__data_start>
	leftMotorSpeed = currentDriveSpeed;
     b24:	90 90 74 00 	lds	r9, 0x0074	; 0x800074 <currentDriveSpeed.2019>
     b28:	b0 91 75 00 	lds	r27, 0x0075	; 0x800075 <currentDriveSpeed.2019+0x1>
     b2c:	f0 91 76 00 	lds	r31, 0x0076	; 0x800076 <currentDriveSpeed.2019+0x2>
     b30:	e0 91 77 00 	lds	r30, 0x0077	; 0x800077 <currentDriveSpeed.2019+0x3>
     b34:	f0 90 78 00 	lds	r15, 0x0078	; 0x800078 <currentDriveSpeed.2019+0x4>
     b38:	f9 86       	std	Y+9, r15	; 0x09
     b3a:	00 91 79 00 	lds	r16, 0x0079	; 0x800079 <currentDriveSpeed.2019+0x5>
     b3e:	0a 87       	std	Y+10, r16	; 0x0a
     b40:	80 90 7a 00 	lds	r8, 0x007A	; 0x80007a <currentDriveSpeed.2019+0x6>
     b44:	40 90 7b 00 	lds	r4, 0x007B	; 0x80007b <currentDriveSpeed.2019+0x7>
     b48:	99 82       	std	Y+1, r9	; 0x01
     b4a:	ba 83       	std	Y+2, r27	; 0x02
     b4c:	fb 83       	std	Y+3, r31	; 0x03
     b4e:	ec 83       	std	Y+4, r30	; 0x04
     b50:	90 92 70 00 	sts	0x0070, r9	; 0x800070 <leftMotorSpeed.2022>
     b54:	b0 93 71 00 	sts	0x0071, r27	; 0x800071 <leftMotorSpeed.2022+0x1>
     b58:	f0 93 72 00 	sts	0x0072, r31	; 0x800072 <leftMotorSpeed.2022+0x2>
     b5c:	e0 93 73 00 	sts	0x0073, r30	; 0x800073 <leftMotorSpeed.2022+0x3>
	rightMotorSpeed = currentDriveSpeed;
     b60:	90 92 6c 00 	sts	0x006C, r9	; 0x80006c <rightMotorSpeed.2023>
     b64:	b0 93 6d 00 	sts	0x006D, r27	; 0x80006d <rightMotorSpeed.2023+0x1>
     b68:	f0 93 6e 00 	sts	0x006E, r31	; 0x80006e <rightMotorSpeed.2023+0x2>
     b6c:	e0 93 6f 00 	sts	0x006F, r30	; 0x80006f <rightMotorSpeed.2023+0x3>
	
	
	//Check turn direction
	if(rp6Data.turnDirection != currentTurnDirection){						//If the turn direction is changed
     b70:	1e 85       	ldd	r17, Y+14	; 0x0e
     b72:	81 2f       	mov	r24, r17
     b74:	11 0f       	add	r17, r17
     b76:	99 0b       	sbc	r25, r25
     b78:	20 91 6a 00 	lds	r18, 0x006A	; 0x80006a <currentTurnDirection.2017>
     b7c:	30 91 6b 00 	lds	r19, 0x006B	; 0x80006b <currentTurnDirection.2017+0x1>
     b80:	82 17       	cp	r24, r18
     b82:	93 07       	cpc	r25, r19
     b84:	29 f1       	breq	.+74     	; 0xbd0 <__stack+0x371>
		leftMotorSpeed = currentDriveSpeed;								//Start by driving straight
		rightMotorSpeed = currentDriveSpeed;							//---^
		currentTurnDirection = rp6Data.turnDirection;							//Set the new turn direction
     b86:	90 93 6b 00 	sts	0x006B, r25	; 0x80006b <currentTurnDirection.2017+0x1>
     b8a:	80 93 6a 00 	sts	0x006A, r24	; 0x80006a <currentTurnDirection.2017>
		updateTimer += 100000;											//Add an extra delay to decrease wear and tear on the gears
     b8e:	25 2d       	mov	r18, r5
     b90:	36 2d       	mov	r19, r6
     b92:	47 2d       	mov	r20, r7
     b94:	5e 89       	ldd	r21, Y+22	; 0x16
     b96:	68 a1       	ldd	r22, Y+32	; 0x20
     b98:	79 a1       	ldd	r23, Y+33	; 0x21
     b9a:	8a a1       	ldd	r24, Y+34	; 0x22
     b9c:	9b a1       	ldd	r25, Y+35	; 0x23
     b9e:	20 56       	subi	r18, 0x60	; 96
     ba0:	39 47       	sbci	r19, 0x79	; 121
     ba2:	4e 4f       	sbci	r20, 0xFE	; 254
     ba4:	5f 4f       	sbci	r21, 0xFF	; 255
     ba6:	6f 4f       	sbci	r22, 0xFF	; 255
     ba8:	7f 4f       	sbci	r23, 0xFF	; 255
     baa:	8f 4f       	sbci	r24, 0xFF	; 255
     bac:	9f 4f       	sbci	r25, 0xFF	; 255
     bae:	20 93 7c 00 	sts	0x007C, r18	; 0x80007c <updateTimer.2015>
     bb2:	30 93 7d 00 	sts	0x007D, r19	; 0x80007d <updateTimer.2015+0x1>
     bb6:	40 93 7e 00 	sts	0x007E, r20	; 0x80007e <updateTimer.2015+0x2>
     bba:	50 93 7f 00 	sts	0x007F, r21	; 0x80007f <updateTimer.2015+0x3>
     bbe:	60 93 80 00 	sts	0x0080, r22	; 0x800080 <updateTimer.2015+0x4>
     bc2:	70 93 81 00 	sts	0x0081, r23	; 0x800081 <updateTimer.2015+0x5>
     bc6:	80 93 82 00 	sts	0x0082, r24	; 0x800082 <updateTimer.2015+0x6>
     bca:	90 93 83 00 	sts	0x0083, r25	; 0x800083 <updateTimer.2015+0x7>
     bce:	26 c2       	rjmp	.+1100   	; 0x101c <__stack+0x7bd>
	}else if(currentTurnDirection == -1){							//If the turn direction is -1, we go left
     bd0:	8f 3f       	cpi	r24, 0xFF	; 255
     bd2:	2f ef       	ldi	r18, 0xFF	; 255
     bd4:	92 07       	cpc	r25, r18
     bd6:	09 f0       	breq	.+2      	; 0xbda <__stack+0x37b>
     bd8:	0f c1       	rjmp	.+542    	; 0xdf8 <__stack+0x599>
		if(currentDriveSpeed == 0){										//If the speed is 0, we need to turn around our axle
     bda:	29 2d       	mov	r18, r9
     bdc:	3b 2f       	mov	r19, r27
     bde:	4f 2f       	mov	r20, r31
     be0:	5e 2f       	mov	r21, r30
     be2:	69 85       	ldd	r22, Y+9	; 0x09
     be4:	7a 85       	ldd	r23, Y+10	; 0x0a
     be6:	88 2d       	mov	r24, r8
     be8:	94 2d       	mov	r25, r4
     bea:	a0 e0       	ldi	r26, 0x00	; 0
     bec:	0e 94 9d 0b 	call	0x173a	; 0x173a <__cmpdi2_s8>
     bf0:	31 f5       	brne	.+76     	; 0xc3e <__stack+0x3df>
			leftMotorDirection = 0;											//Turn the left motor backwards
     bf2:	10 92 63 00 	sts	0x0063, r1	; 0x800063 <leftMotorDirection.2020+0x1>
     bf6:	10 92 62 00 	sts	0x0062, r1	; 0x800062 <leftMotorDirection.2020>
			rightMotorDirection = 1;										//Turn the right motor forwards
     bfa:	81 e0       	ldi	r24, 0x01	; 1
     bfc:	90 e0       	ldi	r25, 0x00	; 0
     bfe:	90 93 61 00 	sts	0x0061, r25	; 0x800061 <__data_start+0x1>
     c02:	80 93 60 00 	sts	0x0060, r24	; 0x800060 <__data_start>
			leftMotorSpeed = rp6Data.driveSpeedThreshold + 2000 + (rp6Data.turnRate / 2);				//Set the speed to minimal + twice the turn rate
     c06:	2e 8d       	ldd	r18, Y+30	; 0x1e
     c08:	3f 8d       	ldd	r19, Y+31	; 0x1f
     c0a:	36 95       	lsr	r19
     c0c:	27 95       	ror	r18
     c0e:	c1 01       	movw	r24, r2
     c10:	80 53       	subi	r24, 0x30	; 48
     c12:	98 4f       	sbci	r25, 0xF8	; 248
     c14:	82 0f       	add	r24, r18
     c16:	93 1f       	adc	r25, r19
     c18:	a0 e0       	ldi	r26, 0x00	; 0
     c1a:	b0 e0       	ldi	r27, 0x00	; 0
     c1c:	80 93 70 00 	sts	0x0070, r24	; 0x800070 <leftMotorSpeed.2022>
     c20:	90 93 71 00 	sts	0x0071, r25	; 0x800071 <leftMotorSpeed.2022+0x1>
     c24:	a0 93 72 00 	sts	0x0072, r26	; 0x800072 <leftMotorSpeed.2022+0x2>
     c28:	b0 93 73 00 	sts	0x0073, r27	; 0x800073 <leftMotorSpeed.2022+0x3>
			rightMotorSpeed = rp6Data.driveSpeedThreshold + 2000 + (rp6Data.turnRate / 2);				//---^
     c2c:	80 93 6c 00 	sts	0x006C, r24	; 0x80006c <rightMotorSpeed.2023>
     c30:	90 93 6d 00 	sts	0x006D, r25	; 0x80006d <rightMotorSpeed.2023+0x1>
     c34:	a0 93 6e 00 	sts	0x006E, r26	; 0x80006e <rightMotorSpeed.2023+0x2>
     c38:	b0 93 6f 00 	sts	0x006F, r27	; 0x80006f <rightMotorSpeed.2023+0x3>
     c3c:	0f c2       	rjmp	.+1054   	; 0x105c <__stack+0x7fd>
		}else{															//If we are driving (Forward or backwards does not matter)
			
			if((currentDriveSpeed - rp6Data.turnRate) < (rp6Data.driveSpeedThreshold + 2000)){
     c3e:	ce 8c       	ldd	r12, Y+30	; 0x1e
     c40:	df 8c       	ldd	r13, Y+31	; 0x1f
     c42:	56 01       	movw	r10, r12
     c44:	c1 2c       	mov	r12, r1
     c46:	d1 2c       	mov	r13, r1
     c48:	e1 2c       	mov	r14, r1
     c4a:	f1 2c       	mov	r15, r1
     c4c:	87 01       	movw	r16, r14
     c4e:	ae 86       	std	Y+14, r10	; 0x0e
     c50:	bf 86       	std	Y+15, r11	; 0x0f
     c52:	c8 8a       	std	Y+16, r12	; 0x10
     c54:	d9 8a       	std	Y+17, r13	; 0x11
     c56:	ea 8a       	std	Y+18, r14	; 0x12
     c58:	fb 8a       	std	Y+19, r15	; 0x13
     c5a:	0c 8b       	std	Y+20, r16	; 0x14
     c5c:	1d 8b       	std	Y+21, r17	; 0x15
     c5e:	31 01       	movw	r6, r2
     c60:	00 e3       	ldi	r16, 0x30	; 48
     c62:	60 1a       	sub	r6, r16
     c64:	08 ef       	ldi	r16, 0xF8	; 248
     c66:	70 0a       	sbc	r7, r16
     c68:	29 2d       	mov	r18, r9
     c6a:	3b 2f       	mov	r19, r27
     c6c:	4f 2f       	mov	r20, r31
     c6e:	5e 2f       	mov	r21, r30
     c70:	69 85       	ldd	r22, Y+9	; 0x09
     c72:	7a 85       	ldd	r23, Y+10	; 0x0a
     c74:	88 2d       	mov	r24, r8
     c76:	94 2d       	mov	r25, r4
     c78:	c1 2c       	mov	r12, r1
     c7a:	d1 2c       	mov	r13, r1
     c7c:	e1 2c       	mov	r14, r1
     c7e:	f1 2c       	mov	r15, r1
     c80:	00 e0       	ldi	r16, 0x00	; 0
     c82:	10 e0       	ldi	r17, 0x00	; 0
     c84:	0e 94 8b 0b 	call	0x1716	; 0x1716 <__subdi3>
     c88:	53 01       	movw	r10, r6
     c8a:	c1 2c       	mov	r12, r1
     c8c:	d1 2c       	mov	r13, r1
     c8e:	e1 2c       	mov	r14, r1
     c90:	f1 2c       	mov	r15, r1
     c92:	87 01       	movw	r16, r14
     c94:	6e 8a       	std	Y+22, r6	; 0x16
     c96:	bf 8a       	std	Y+23, r11	; 0x17
     c98:	c8 8e       	std	Y+24, r12	; 0x18
     c9a:	d9 8e       	std	Y+25, r13	; 0x19
     c9c:	ea 8e       	std	Y+26, r14	; 0x1a
     c9e:	fb 8e       	std	Y+27, r15	; 0x1b
     ca0:	0c 8f       	std	Y+28, r16	; 0x1c
     ca2:	1d 8f       	std	Y+29, r17	; 0x1d
     ca4:	c1 2c       	mov	r12, r1
     ca6:	d1 2c       	mov	r13, r1
     ca8:	e1 2c       	mov	r14, r1
     caa:	f1 2c       	mov	r15, r1
     cac:	00 e0       	ldi	r16, 0x00	; 0
     cae:	10 e0       	ldi	r17, 0x00	; 0
     cb0:	0e 94 94 0b 	call	0x1728	; 0x1728 <__cmpdi2>
     cb4:	7c f5       	brge	.+94     	; 0xd14 <__stack+0x4b5>
				leftMotorSpeed = rp6Data.driveSpeedThreshold + 2000;
     cb6:	c3 01       	movw	r24, r6
     cb8:	a0 e0       	ldi	r26, 0x00	; 0
     cba:	b0 e0       	ldi	r27, 0x00	; 0
     cbc:	80 93 70 00 	sts	0x0070, r24	; 0x800070 <leftMotorSpeed.2022>
     cc0:	90 93 71 00 	sts	0x0071, r25	; 0x800071 <leftMotorSpeed.2022+0x1>
     cc4:	a0 93 72 00 	sts	0x0072, r26	; 0x800072 <leftMotorSpeed.2022+0x2>
     cc8:	b0 93 73 00 	sts	0x0073, r27	; 0x800073 <leftMotorSpeed.2022+0x3>
				if((leftMotorSpeed + (rp6Data.turnRate * 2)) > 25600){
     ccc:	2e 8d       	ldd	r18, Y+30	; 0x1e
     cce:	3f 8d       	ldd	r19, Y+31	; 0x1f
     cd0:	22 0f       	add	r18, r18
     cd2:	33 1f       	adc	r19, r19
     cd4:	82 0f       	add	r24, r18
     cd6:	93 1f       	adc	r25, r19
     cd8:	a1 1d       	adc	r26, r1
     cda:	b1 1d       	adc	r27, r1
     cdc:	81 30       	cpi	r24, 0x01	; 1
     cde:	04 e6       	ldi	r16, 0x64	; 100
     ce0:	90 07       	cpc	r25, r16
     ce2:	a1 05       	cpc	r26, r1
     ce4:	b1 05       	cpc	r27, r1
     ce6:	68 f0       	brcs	.+26     	; 0xd02 <__stack+0x4a3>
					rightMotorSpeed = 25600;
     ce8:	80 e0       	ldi	r24, 0x00	; 0
     cea:	94 e6       	ldi	r25, 0x64	; 100
     cec:	a0 e0       	ldi	r26, 0x00	; 0
     cee:	b0 e0       	ldi	r27, 0x00	; 0
     cf0:	80 93 6c 00 	sts	0x006C, r24	; 0x80006c <rightMotorSpeed.2023>
     cf4:	90 93 6d 00 	sts	0x006D, r25	; 0x80006d <rightMotorSpeed.2023+0x1>
     cf8:	a0 93 6e 00 	sts	0x006E, r26	; 0x80006e <rightMotorSpeed.2023+0x2>
     cfc:	b0 93 6f 00 	sts	0x006F, r27	; 0x80006f <rightMotorSpeed.2023+0x3>
     d00:	99 c1       	rjmp	.+818    	; 0x1034 <__stack+0x7d5>
				}else{
					rightMotorSpeed = (leftMotorSpeed + (rp6Data.turnRate * 2));
     d02:	80 93 6c 00 	sts	0x006C, r24	; 0x80006c <rightMotorSpeed.2023>
     d06:	90 93 6d 00 	sts	0x006D, r25	; 0x80006d <rightMotorSpeed.2023+0x1>
     d0a:	a0 93 6e 00 	sts	0x006E, r26	; 0x80006e <rightMotorSpeed.2023+0x2>
     d0e:	b0 93 6f 00 	sts	0x006F, r27	; 0x80006f <rightMotorSpeed.2023+0x3>
     d12:	90 c1       	rjmp	.+800    	; 0x1034 <__stack+0x7d5>
				}
			}else if((currentDriveSpeed + rp6Data.turnRate) > 25600){
     d14:	29 2d       	mov	r18, r9
     d16:	3b 2f       	mov	r19, r27
     d18:	4f 2f       	mov	r20, r31
     d1a:	5e 2f       	mov	r21, r30
     d1c:	69 85       	ldd	r22, Y+9	; 0x09
     d1e:	7a 85       	ldd	r23, Y+10	; 0x0a
     d20:	88 2d       	mov	r24, r8
     d22:	94 2d       	mov	r25, r4
     d24:	ae 84       	ldd	r10, Y+14	; 0x0e
     d26:	bf 84       	ldd	r11, Y+15	; 0x0f
     d28:	c1 2c       	mov	r12, r1
     d2a:	d1 2c       	mov	r13, r1
     d2c:	e1 2c       	mov	r14, r1
     d2e:	f1 2c       	mov	r15, r1
     d30:	00 e0       	ldi	r16, 0x00	; 0
     d32:	10 e0       	ldi	r17, 0x00	; 0
     d34:	0e 94 76 0b 	call	0x16ec	; 0x16ec <__adddi3>
     d38:	21 15       	cp	r18, r1
     d3a:	34 46       	sbci	r19, 0x64	; 100
     d3c:	41 05       	cpc	r20, r1
     d3e:	51 05       	cpc	r21, r1
     d40:	61 05       	cpc	r22, r1
     d42:	71 05       	cpc	r23, r1
     d44:	81 05       	cpc	r24, r1
     d46:	91 05       	cpc	r25, r1
     d48:	89 f1       	breq	.+98     	; 0xdac <__stack+0x54d>
     d4a:	84 f1       	brlt	.+96     	; 0xdac <__stack+0x54d>
				rightMotorSpeed = 25600;
     d4c:	80 e0       	ldi	r24, 0x00	; 0
     d4e:	94 e6       	ldi	r25, 0x64	; 100
     d50:	a0 e0       	ldi	r26, 0x00	; 0
     d52:	b0 e0       	ldi	r27, 0x00	; 0
     d54:	80 93 6c 00 	sts	0x006C, r24	; 0x80006c <rightMotorSpeed.2023>
     d58:	90 93 6d 00 	sts	0x006D, r25	; 0x80006d <rightMotorSpeed.2023+0x1>
     d5c:	a0 93 6e 00 	sts	0x006E, r26	; 0x80006e <rightMotorSpeed.2023+0x2>
     d60:	b0 93 6f 00 	sts	0x006F, r27	; 0x80006f <rightMotorSpeed.2023+0x3>
				if((rightMotorSpeed - (rp6Data.turnRate * 2)) < (rp6Data.driveSpeedThreshold + 2000)){
     d64:	2e 8d       	ldd	r18, Y+30	; 0x1e
     d66:	3f 8d       	ldd	r19, Y+31	; 0x1f
     d68:	22 0f       	add	r18, r18
     d6a:	33 1f       	adc	r19, r19
     d6c:	ac 01       	movw	r20, r24
     d6e:	bd 01       	movw	r22, r26
     d70:	42 1b       	sub	r20, r18
     d72:	53 0b       	sbc	r21, r19
     d74:	61 09       	sbc	r22, r1
     d76:	71 09       	sbc	r23, r1
     d78:	c3 01       	movw	r24, r6
     d7a:	a0 e0       	ldi	r26, 0x00	; 0
     d7c:	b0 e0       	ldi	r27, 0x00	; 0
     d7e:	48 17       	cp	r20, r24
     d80:	59 07       	cpc	r21, r25
     d82:	6a 07       	cpc	r22, r26
     d84:	7b 07       	cpc	r23, r27
     d86:	48 f4       	brcc	.+18     	; 0xd9a <__stack+0x53b>
					leftMotorSpeed = (rp6Data.driveSpeedThreshold + 2000);
     d88:	80 93 70 00 	sts	0x0070, r24	; 0x800070 <leftMotorSpeed.2022>
     d8c:	90 93 71 00 	sts	0x0071, r25	; 0x800071 <leftMotorSpeed.2022+0x1>
     d90:	a0 93 72 00 	sts	0x0072, r26	; 0x800072 <leftMotorSpeed.2022+0x2>
     d94:	b0 93 73 00 	sts	0x0073, r27	; 0x800073 <leftMotorSpeed.2022+0x3>
     d98:	4d c1       	rjmp	.+666    	; 0x1034 <__stack+0x7d5>
				}else{
					leftMotorSpeed = (rightMotorSpeed - (rp6Data.turnRate * 2));
     d9a:	40 93 70 00 	sts	0x0070, r20	; 0x800070 <leftMotorSpeed.2022>
     d9e:	50 93 71 00 	sts	0x0071, r21	; 0x800071 <leftMotorSpeed.2022+0x1>
     da2:	60 93 72 00 	sts	0x0072, r22	; 0x800072 <leftMotorSpeed.2022+0x2>
     da6:	70 93 73 00 	sts	0x0073, r23	; 0x800073 <leftMotorSpeed.2022+0x3>
     daa:	44 c1       	rjmp	.+648    	; 0x1034 <__stack+0x7d5>
				}
			}else{
				leftMotorSpeed = (currentDriveSpeed - rp6Data.turnRate);
     dac:	2e 8d       	ldd	r18, Y+30	; 0x1e
     dae:	3f 8d       	ldd	r19, Y+31	; 0x1f
     db0:	c9 01       	movw	r24, r18
     db2:	a0 e0       	ldi	r26, 0x00	; 0
     db4:	b0 e0       	ldi	r27, 0x00	; 0
     db6:	49 81       	ldd	r20, Y+1	; 0x01
     db8:	5a 81       	ldd	r21, Y+2	; 0x02
     dba:	6b 81       	ldd	r22, Y+3	; 0x03
     dbc:	7c 81       	ldd	r23, Y+4	; 0x04
     dbe:	48 1b       	sub	r20, r24
     dc0:	59 0b       	sbc	r21, r25
     dc2:	6a 0b       	sbc	r22, r26
     dc4:	7b 0b       	sbc	r23, r27
     dc6:	40 93 70 00 	sts	0x0070, r20	; 0x800070 <leftMotorSpeed.2022>
     dca:	50 93 71 00 	sts	0x0071, r21	; 0x800071 <leftMotorSpeed.2022+0x1>
     dce:	60 93 72 00 	sts	0x0072, r22	; 0x800072 <leftMotorSpeed.2022+0x2>
     dd2:	70 93 73 00 	sts	0x0073, r23	; 0x800073 <leftMotorSpeed.2022+0x3>
				rightMotorSpeed = (currentDriveSpeed + rp6Data.turnRate);
     dd6:	49 81       	ldd	r20, Y+1	; 0x01
     dd8:	5a 81       	ldd	r21, Y+2	; 0x02
     dda:	6b 81       	ldd	r22, Y+3	; 0x03
     ddc:	7c 81       	ldd	r23, Y+4	; 0x04
     dde:	84 0f       	add	r24, r20
     de0:	95 1f       	adc	r25, r21
     de2:	a6 1f       	adc	r26, r22
     de4:	b7 1f       	adc	r27, r23
     de6:	80 93 6c 00 	sts	0x006C, r24	; 0x80006c <rightMotorSpeed.2023>
     dea:	90 93 6d 00 	sts	0x006D, r25	; 0x80006d <rightMotorSpeed.2023+0x1>
     dee:	a0 93 6e 00 	sts	0x006E, r26	; 0x80006e <rightMotorSpeed.2023+0x2>
     df2:	b0 93 6f 00 	sts	0x006F, r27	; 0x80006f <rightMotorSpeed.2023+0x3>
     df6:	1e c1       	rjmp	.+572    	; 0x1034 <__stack+0x7d5>
			}
		}
	}else if(currentTurnDirection == 1){							//If the turn direction is 1, we go to the right
     df8:	01 97       	sbiw	r24, 0x01	; 1
     dfa:	09 f0       	breq	.+2      	; 0xdfe <__stack+0x59f>
     dfc:	0f c1       	rjmp	.+542    	; 0x101c <__stack+0x7bd>
		if(currentDriveSpeed == 0){										//If we stand still, we turn around our axle
     dfe:	29 2d       	mov	r18, r9
     e00:	3b 2f       	mov	r19, r27
     e02:	4f 2f       	mov	r20, r31
     e04:	5e 2f       	mov	r21, r30
     e06:	69 85       	ldd	r22, Y+9	; 0x09
     e08:	7a 85       	ldd	r23, Y+10	; 0x0a
     e0a:	88 2d       	mov	r24, r8
     e0c:	94 2d       	mov	r25, r4
     e0e:	a0 e0       	ldi	r26, 0x00	; 0
     e10:	0e 94 9d 0b 	call	0x173a	; 0x173a <__cmpdi2_s8>
     e14:	31 f5       	brne	.+76     	; 0xe62 <__stack+0x603>
			leftMotorDirection = 1;											//Left motor forward
     e16:	81 e0       	ldi	r24, 0x01	; 1
     e18:	90 e0       	ldi	r25, 0x00	; 0
     e1a:	90 93 63 00 	sts	0x0063, r25	; 0x800063 <leftMotorDirection.2020+0x1>
     e1e:	80 93 62 00 	sts	0x0062, r24	; 0x800062 <leftMotorDirection.2020>
			rightMotorDirection = 0;										//Right motor backward
     e22:	10 92 61 00 	sts	0x0061, r1	; 0x800061 <__data_start+0x1>
     e26:	10 92 60 00 	sts	0x0060, r1	; 0x800060 <__data_start>
			leftMotorSpeed = rp6Data.driveSpeedThreshold + 2000 + (rp6Data.turnRate / 2);				//set motor speed to minimal + twice the turn rate
     e2a:	91 01       	movw	r18, r2
     e2c:	20 53       	subi	r18, 0x30	; 48
     e2e:	38 4f       	sbci	r19, 0xF8	; 248
     e30:	8e 8d       	ldd	r24, Y+30	; 0x1e
     e32:	9f 8d       	ldd	r25, Y+31	; 0x1f
     e34:	96 95       	lsr	r25
     e36:	87 95       	ror	r24
     e38:	82 0f       	add	r24, r18
     e3a:	93 1f       	adc	r25, r19
     e3c:	a0 e0       	ldi	r26, 0x00	; 0
     e3e:	b0 e0       	ldi	r27, 0x00	; 0
     e40:	80 93 70 00 	sts	0x0070, r24	; 0x800070 <leftMotorSpeed.2022>
     e44:	90 93 71 00 	sts	0x0071, r25	; 0x800071 <leftMotorSpeed.2022+0x1>
     e48:	a0 93 72 00 	sts	0x0072, r26	; 0x800072 <leftMotorSpeed.2022+0x2>
     e4c:	b0 93 73 00 	sts	0x0073, r27	; 0x800073 <leftMotorSpeed.2022+0x3>
			rightMotorSpeed = rp6Data.driveSpeedThreshold + 2000 + (rp6Data.turnRate / 2);				//---^
     e50:	80 93 6c 00 	sts	0x006C, r24	; 0x80006c <rightMotorSpeed.2023>
     e54:	90 93 6d 00 	sts	0x006D, r25	; 0x80006d <rightMotorSpeed.2023+0x1>
     e58:	a0 93 6e 00 	sts	0x006E, r26	; 0x80006e <rightMotorSpeed.2023+0x2>
     e5c:	b0 93 6f 00 	sts	0x006F, r27	; 0x80006f <rightMotorSpeed.2023+0x3>
     e60:	fd c0       	rjmp	.+506    	; 0x105c <__stack+0x7fd>
		}else{														//If we are driving (Forward or backwards does not matter)
			
			if((currentDriveSpeed - rp6Data.turnRate) < (rp6Data.driveSpeedThreshold + 2000)){
     e62:	ce 8c       	ldd	r12, Y+30	; 0x1e
     e64:	df 8c       	ldd	r13, Y+31	; 0x1f
     e66:	56 01       	movw	r10, r12
     e68:	c1 2c       	mov	r12, r1
     e6a:	d1 2c       	mov	r13, r1
     e6c:	e1 2c       	mov	r14, r1
     e6e:	f1 2c       	mov	r15, r1
     e70:	87 01       	movw	r16, r14
     e72:	ae 86       	std	Y+14, r10	; 0x0e
     e74:	bf 86       	std	Y+15, r11	; 0x0f
     e76:	c8 8a       	std	Y+16, r12	; 0x10
     e78:	d9 8a       	std	Y+17, r13	; 0x11
     e7a:	ea 8a       	std	Y+18, r14	; 0x12
     e7c:	fb 8a       	std	Y+19, r15	; 0x13
     e7e:	0c 8b       	std	Y+20, r16	; 0x14
     e80:	1d 8b       	std	Y+21, r17	; 0x15
     e82:	31 01       	movw	r6, r2
     e84:	00 e3       	ldi	r16, 0x30	; 48
     e86:	60 1a       	sub	r6, r16
     e88:	08 ef       	ldi	r16, 0xF8	; 248
     e8a:	70 0a       	sbc	r7, r16
     e8c:	29 2d       	mov	r18, r9
     e8e:	3b 2f       	mov	r19, r27
     e90:	4f 2f       	mov	r20, r31
     e92:	5e 2f       	mov	r21, r30
     e94:	69 85       	ldd	r22, Y+9	; 0x09
     e96:	7a 85       	ldd	r23, Y+10	; 0x0a
     e98:	88 2d       	mov	r24, r8
     e9a:	94 2d       	mov	r25, r4
     e9c:	c1 2c       	mov	r12, r1
     e9e:	d1 2c       	mov	r13, r1
     ea0:	e1 2c       	mov	r14, r1
     ea2:	f1 2c       	mov	r15, r1
     ea4:	00 e0       	ldi	r16, 0x00	; 0
     ea6:	10 e0       	ldi	r17, 0x00	; 0
     ea8:	0e 94 8b 0b 	call	0x1716	; 0x1716 <__subdi3>
     eac:	53 01       	movw	r10, r6
     eae:	c1 2c       	mov	r12, r1
     eb0:	d1 2c       	mov	r13, r1
     eb2:	e1 2c       	mov	r14, r1
     eb4:	f1 2c       	mov	r15, r1
     eb6:	87 01       	movw	r16, r14
     eb8:	6e 8a       	std	Y+22, r6	; 0x16
     eba:	bf 8a       	std	Y+23, r11	; 0x17
     ebc:	c8 8e       	std	Y+24, r12	; 0x18
     ebe:	d9 8e       	std	Y+25, r13	; 0x19
     ec0:	ea 8e       	std	Y+26, r14	; 0x1a
     ec2:	fb 8e       	std	Y+27, r15	; 0x1b
     ec4:	0c 8f       	std	Y+28, r16	; 0x1c
     ec6:	1d 8f       	std	Y+29, r17	; 0x1d
     ec8:	c1 2c       	mov	r12, r1
     eca:	d1 2c       	mov	r13, r1
     ecc:	e1 2c       	mov	r14, r1
     ece:	f1 2c       	mov	r15, r1
     ed0:	00 e0       	ldi	r16, 0x00	; 0
     ed2:	10 e0       	ldi	r17, 0x00	; 0
     ed4:	0e 94 94 0b 	call	0x1728	; 0x1728 <__cmpdi2>
     ed8:	7c f5       	brge	.+94     	; 0xf38 <__stack+0x6d9>
				rightMotorSpeed = rp6Data.driveSpeedThreshold + 2000;
     eda:	c3 01       	movw	r24, r6
     edc:	a0 e0       	ldi	r26, 0x00	; 0
     ede:	b0 e0       	ldi	r27, 0x00	; 0
     ee0:	80 93 6c 00 	sts	0x006C, r24	; 0x80006c <rightMotorSpeed.2023>
     ee4:	90 93 6d 00 	sts	0x006D, r25	; 0x80006d <rightMotorSpeed.2023+0x1>
     ee8:	a0 93 6e 00 	sts	0x006E, r26	; 0x80006e <rightMotorSpeed.2023+0x2>
     eec:	b0 93 6f 00 	sts	0x006F, r27	; 0x80006f <rightMotorSpeed.2023+0x3>
				if((rightMotorSpeed + (rp6Data.turnRate * 2)) > 25600){
     ef0:	2e 8d       	ldd	r18, Y+30	; 0x1e
     ef2:	3f 8d       	ldd	r19, Y+31	; 0x1f
     ef4:	22 0f       	add	r18, r18
     ef6:	33 1f       	adc	r19, r19
     ef8:	82 0f       	add	r24, r18
     efa:	93 1f       	adc	r25, r19
     efc:	a1 1d       	adc	r26, r1
     efe:	b1 1d       	adc	r27, r1
     f00:	81 30       	cpi	r24, 0x01	; 1
     f02:	04 e6       	ldi	r16, 0x64	; 100
     f04:	90 07       	cpc	r25, r16
     f06:	a1 05       	cpc	r26, r1
     f08:	b1 05       	cpc	r27, r1
     f0a:	68 f0       	brcs	.+26     	; 0xf26 <__stack+0x6c7>
					leftMotorSpeed = 25600;
     f0c:	80 e0       	ldi	r24, 0x00	; 0
     f0e:	94 e6       	ldi	r25, 0x64	; 100
     f10:	a0 e0       	ldi	r26, 0x00	; 0
     f12:	b0 e0       	ldi	r27, 0x00	; 0
     f14:	80 93 70 00 	sts	0x0070, r24	; 0x800070 <leftMotorSpeed.2022>
     f18:	90 93 71 00 	sts	0x0071, r25	; 0x800071 <leftMotorSpeed.2022+0x1>
     f1c:	a0 93 72 00 	sts	0x0072, r26	; 0x800072 <leftMotorSpeed.2022+0x2>
     f20:	b0 93 73 00 	sts	0x0073, r27	; 0x800073 <leftMotorSpeed.2022+0x3>
     f24:	87 c0       	rjmp	.+270    	; 0x1034 <__stack+0x7d5>
				}else{
					leftMotorSpeed = (rightMotorSpeed + (rp6Data.turnRate * 2));
     f26:	80 93 70 00 	sts	0x0070, r24	; 0x800070 <leftMotorSpeed.2022>
     f2a:	90 93 71 00 	sts	0x0071, r25	; 0x800071 <leftMotorSpeed.2022+0x1>
     f2e:	a0 93 72 00 	sts	0x0072, r26	; 0x800072 <leftMotorSpeed.2022+0x2>
     f32:	b0 93 73 00 	sts	0x0073, r27	; 0x800073 <leftMotorSpeed.2022+0x3>
     f36:	7e c0       	rjmp	.+252    	; 0x1034 <__stack+0x7d5>
				}
			}else if((currentDriveSpeed + rp6Data.turnRate) > 25600){
     f38:	29 2d       	mov	r18, r9
     f3a:	3b 2f       	mov	r19, r27
     f3c:	4f 2f       	mov	r20, r31
     f3e:	5e 2f       	mov	r21, r30
     f40:	69 85       	ldd	r22, Y+9	; 0x09
     f42:	7a 85       	ldd	r23, Y+10	; 0x0a
     f44:	88 2d       	mov	r24, r8
     f46:	94 2d       	mov	r25, r4
     f48:	ae 84       	ldd	r10, Y+14	; 0x0e
     f4a:	bf 84       	ldd	r11, Y+15	; 0x0f
     f4c:	c1 2c       	mov	r12, r1
     f4e:	d1 2c       	mov	r13, r1
     f50:	e1 2c       	mov	r14, r1
     f52:	f1 2c       	mov	r15, r1
     f54:	00 e0       	ldi	r16, 0x00	; 0
     f56:	10 e0       	ldi	r17, 0x00	; 0
     f58:	0e 94 76 0b 	call	0x16ec	; 0x16ec <__adddi3>
     f5c:	21 15       	cp	r18, r1
     f5e:	34 46       	sbci	r19, 0x64	; 100
     f60:	41 05       	cpc	r20, r1
     f62:	51 05       	cpc	r21, r1
     f64:	61 05       	cpc	r22, r1
     f66:	71 05       	cpc	r23, r1
     f68:	81 05       	cpc	r24, r1
     f6a:	91 05       	cpc	r25, r1
     f6c:	89 f1       	breq	.+98     	; 0xfd0 <__stack+0x771>
     f6e:	84 f1       	brlt	.+96     	; 0xfd0 <__stack+0x771>
				leftMotorSpeed = 25600;
     f70:	80 e0       	ldi	r24, 0x00	; 0
     f72:	94 e6       	ldi	r25, 0x64	; 100
     f74:	a0 e0       	ldi	r26, 0x00	; 0
     f76:	b0 e0       	ldi	r27, 0x00	; 0
     f78:	80 93 70 00 	sts	0x0070, r24	; 0x800070 <leftMotorSpeed.2022>
     f7c:	90 93 71 00 	sts	0x0071, r25	; 0x800071 <leftMotorSpeed.2022+0x1>
     f80:	a0 93 72 00 	sts	0x0072, r26	; 0x800072 <leftMotorSpeed.2022+0x2>
     f84:	b0 93 73 00 	sts	0x0073, r27	; 0x800073 <leftMotorSpeed.2022+0x3>
				if((leftMotorSpeed - (rp6Data.turnRate * 2)) < (rp6Data.driveSpeedThreshold + 2000)){
     f88:	2e 8d       	ldd	r18, Y+30	; 0x1e
     f8a:	3f 8d       	ldd	r19, Y+31	; 0x1f
     f8c:	22 0f       	add	r18, r18
     f8e:	33 1f       	adc	r19, r19
     f90:	ac 01       	movw	r20, r24
     f92:	bd 01       	movw	r22, r26
     f94:	42 1b       	sub	r20, r18
     f96:	53 0b       	sbc	r21, r19
     f98:	61 09       	sbc	r22, r1
     f9a:	71 09       	sbc	r23, r1
     f9c:	c3 01       	movw	r24, r6
     f9e:	a0 e0       	ldi	r26, 0x00	; 0
     fa0:	b0 e0       	ldi	r27, 0x00	; 0
     fa2:	48 17       	cp	r20, r24
     fa4:	59 07       	cpc	r21, r25
     fa6:	6a 07       	cpc	r22, r26
     fa8:	7b 07       	cpc	r23, r27
     faa:	48 f4       	brcc	.+18     	; 0xfbe <__stack+0x75f>
					rightMotorSpeed = (rp6Data.driveSpeedThreshold + 2000);
     fac:	80 93 6c 00 	sts	0x006C, r24	; 0x80006c <rightMotorSpeed.2023>
     fb0:	90 93 6d 00 	sts	0x006D, r25	; 0x80006d <rightMotorSpeed.2023+0x1>
     fb4:	a0 93 6e 00 	sts	0x006E, r26	; 0x80006e <rightMotorSpeed.2023+0x2>
     fb8:	b0 93 6f 00 	sts	0x006F, r27	; 0x80006f <rightMotorSpeed.2023+0x3>
     fbc:	3b c0       	rjmp	.+118    	; 0x1034 <__stack+0x7d5>
				}else{
					rightMotorSpeed = (leftMotorSpeed - (rp6Data.turnRate * 2));
     fbe:	40 93 6c 00 	sts	0x006C, r20	; 0x80006c <rightMotorSpeed.2023>
     fc2:	50 93 6d 00 	sts	0x006D, r21	; 0x80006d <rightMotorSpeed.2023+0x1>
     fc6:	60 93 6e 00 	sts	0x006E, r22	; 0x80006e <rightMotorSpeed.2023+0x2>
     fca:	70 93 6f 00 	sts	0x006F, r23	; 0x80006f <rightMotorSpeed.2023+0x3>
     fce:	32 c0       	rjmp	.+100    	; 0x1034 <__stack+0x7d5>
				}
			}else{
				rightMotorSpeed = (currentDriveSpeed - rp6Data.turnRate);
     fd0:	2e 8d       	ldd	r18, Y+30	; 0x1e
     fd2:	3f 8d       	ldd	r19, Y+31	; 0x1f
     fd4:	c9 01       	movw	r24, r18
     fd6:	a0 e0       	ldi	r26, 0x00	; 0
     fd8:	b0 e0       	ldi	r27, 0x00	; 0
     fda:	49 81       	ldd	r20, Y+1	; 0x01
     fdc:	5a 81       	ldd	r21, Y+2	; 0x02
     fde:	6b 81       	ldd	r22, Y+3	; 0x03
     fe0:	7c 81       	ldd	r23, Y+4	; 0x04
     fe2:	48 1b       	sub	r20, r24
     fe4:	59 0b       	sbc	r21, r25
     fe6:	6a 0b       	sbc	r22, r26
     fe8:	7b 0b       	sbc	r23, r27
     fea:	40 93 6c 00 	sts	0x006C, r20	; 0x80006c <rightMotorSpeed.2023>
     fee:	50 93 6d 00 	sts	0x006D, r21	; 0x80006d <rightMotorSpeed.2023+0x1>
     ff2:	60 93 6e 00 	sts	0x006E, r22	; 0x80006e <rightMotorSpeed.2023+0x2>
     ff6:	70 93 6f 00 	sts	0x006F, r23	; 0x80006f <rightMotorSpeed.2023+0x3>
				leftMotorSpeed = (currentDriveSpeed + rp6Data.turnRate);
     ffa:	49 81       	ldd	r20, Y+1	; 0x01
     ffc:	5a 81       	ldd	r21, Y+2	; 0x02
     ffe:	6b 81       	ldd	r22, Y+3	; 0x03
    1000:	7c 81       	ldd	r23, Y+4	; 0x04
    1002:	84 0f       	add	r24, r20
    1004:	95 1f       	adc	r25, r21
    1006:	a6 1f       	adc	r26, r22
    1008:	b7 1f       	adc	r27, r23
    100a:	80 93 70 00 	sts	0x0070, r24	; 0x800070 <leftMotorSpeed.2022>
    100e:	90 93 71 00 	sts	0x0071, r25	; 0x800071 <leftMotorSpeed.2022+0x1>
    1012:	a0 93 72 00 	sts	0x0072, r26	; 0x800072 <leftMotorSpeed.2022+0x2>
    1016:	b0 93 73 00 	sts	0x0073, r27	; 0x800073 <leftMotorSpeed.2022+0x3>
    101a:	0c c0       	rjmp	.+24     	; 0x1034 <__stack+0x7d5>
			}
		}
	}
	
	//Slower left wheel correction
	if(currentDriveSpeed != 0){
    101c:	29 2d       	mov	r18, r9
    101e:	3b 2f       	mov	r19, r27
    1020:	4f 2f       	mov	r20, r31
    1022:	5e 2f       	mov	r21, r30
    1024:	69 85       	ldd	r22, Y+9	; 0x09
    1026:	7a 85       	ldd	r23, Y+10	; 0x0a
    1028:	88 2d       	mov	r24, r8
    102a:	94 2d       	mov	r25, r4
    102c:	a0 e0       	ldi	r26, 0x00	; 0
    102e:	0e 94 9d 0b 	call	0x173a	; 0x173a <__cmpdi2_s8>
    1032:	a1 f0       	breq	.+40     	; 0x105c <__stack+0x7fd>
		leftMotorSpeed += 750;
    1034:	80 91 70 00 	lds	r24, 0x0070	; 0x800070 <leftMotorSpeed.2022>
    1038:	90 91 71 00 	lds	r25, 0x0071	; 0x800071 <leftMotorSpeed.2022+0x1>
    103c:	a0 91 72 00 	lds	r26, 0x0072	; 0x800072 <leftMotorSpeed.2022+0x2>
    1040:	b0 91 73 00 	lds	r27, 0x0073	; 0x800073 <leftMotorSpeed.2022+0x3>
    1044:	82 51       	subi	r24, 0x12	; 18
    1046:	9d 4f       	sbci	r25, 0xFD	; 253
    1048:	af 4f       	sbci	r26, 0xFF	; 255
    104a:	bf 4f       	sbci	r27, 0xFF	; 255
    104c:	80 93 70 00 	sts	0x0070, r24	; 0x800070 <leftMotorSpeed.2022>
    1050:	90 93 71 00 	sts	0x0071, r25	; 0x800071 <leftMotorSpeed.2022+0x1>
    1054:	a0 93 72 00 	sts	0x0072, r26	; 0x800072 <leftMotorSpeed.2022+0x2>
    1058:	b0 93 73 00 	sts	0x0073, r27	; 0x800073 <leftMotorSpeed.2022+0x3>
	}
	
	//Final safety check
	if(leftMotorSpeed > 27000){						//Check if we did not accidentally set a speed higher than allowed on the left motor
    105c:	80 91 70 00 	lds	r24, 0x0070	; 0x800070 <leftMotorSpeed.2022>
    1060:	90 91 71 00 	lds	r25, 0x0071	; 0x800071 <leftMotorSpeed.2022+0x1>
    1064:	a0 91 72 00 	lds	r26, 0x0072	; 0x800072 <leftMotorSpeed.2022+0x2>
    1068:	b0 91 73 00 	lds	r27, 0x0073	; 0x800073 <leftMotorSpeed.2022+0x3>
    106c:	89 37       	cpi	r24, 0x79	; 121
    106e:	99 46       	sbci	r25, 0x69	; 105
    1070:	a1 05       	cpc	r26, r1
    1072:	b1 05       	cpc	r27, r1
    1074:	60 f0       	brcs	.+24     	; 0x108e <__stack+0x82f>
		leftMotorSpeed = 27000;							//If we did, set it back to its max
    1076:	88 e7       	ldi	r24, 0x78	; 120
    1078:	99 e6       	ldi	r25, 0x69	; 105
    107a:	a0 e0       	ldi	r26, 0x00	; 0
    107c:	b0 e0       	ldi	r27, 0x00	; 0
    107e:	80 93 70 00 	sts	0x0070, r24	; 0x800070 <leftMotorSpeed.2022>
    1082:	90 93 71 00 	sts	0x0071, r25	; 0x800071 <leftMotorSpeed.2022+0x1>
    1086:	a0 93 72 00 	sts	0x0072, r26	; 0x800072 <leftMotorSpeed.2022+0x2>
    108a:	b0 93 73 00 	sts	0x0073, r27	; 0x800073 <leftMotorSpeed.2022+0x3>
	}
	if(rightMotorSpeed > 25600){					//Since the right motor is used to stabilize the left, it is allowed to go a little faster. But if it is even more than that
    108e:	80 91 6c 00 	lds	r24, 0x006C	; 0x80006c <rightMotorSpeed.2023>
    1092:	90 91 6d 00 	lds	r25, 0x006D	; 0x80006d <rightMotorSpeed.2023+0x1>
    1096:	a0 91 6e 00 	lds	r26, 0x006E	; 0x80006e <rightMotorSpeed.2023+0x2>
    109a:	b0 91 6f 00 	lds	r27, 0x006F	; 0x80006f <rightMotorSpeed.2023+0x3>
    109e:	81 30       	cpi	r24, 0x01	; 1
    10a0:	94 46       	sbci	r25, 0x64	; 100
    10a2:	a1 05       	cpc	r26, r1
    10a4:	b1 05       	cpc	r27, r1
    10a6:	60 f0       	brcs	.+24     	; 0x10c0 <__stack+0x861>
		rightMotorSpeed = 25600;						//Set it back to its max
    10a8:	80 e0       	ldi	r24, 0x00	; 0
    10aa:	94 e6       	ldi	r25, 0x64	; 100
    10ac:	a0 e0       	ldi	r26, 0x00	; 0
    10ae:	b0 e0       	ldi	r27, 0x00	; 0
    10b0:	80 93 6c 00 	sts	0x006C, r24	; 0x80006c <rightMotorSpeed.2023>
    10b4:	90 93 6d 00 	sts	0x006D, r25	; 0x80006d <rightMotorSpeed.2023+0x1>
    10b8:	a0 93 6e 00 	sts	0x006E, r26	; 0x80006e <rightMotorSpeed.2023+0x2>
    10bc:	b0 93 6f 00 	sts	0x006F, r27	; 0x80006f <rightMotorSpeed.2023+0x3>
	}
	
	
	//Set motor direction
	if(leftMotorDirection){
    10c0:	80 91 62 00 	lds	r24, 0x0062	; 0x800062 <leftMotorDirection.2020>
    10c4:	90 91 63 00 	lds	r25, 0x0063	; 0x800063 <leftMotorDirection.2020+0x1>
    10c8:	89 2b       	or	r24, r25
    10ca:	11 f0       	breq	.+4      	; 0x10d0 <__stack+0x871>
		PORTC &= 0b11111011;
    10cc:	aa 98       	cbi	0x15, 2	; 21
    10ce:	01 c0       	rjmp	.+2      	; 0x10d2 <__stack+0x873>
	}else{
		PORTC |= 0b00000100;
    10d0:	aa 9a       	sbi	0x15, 2	; 21
	}
	if(rightMotorDirection){
    10d2:	80 91 60 00 	lds	r24, 0x0060	; 0x800060 <__data_start>
    10d6:	90 91 61 00 	lds	r25, 0x0061	; 0x800061 <__data_start+0x1>
    10da:	89 2b       	or	r24, r25
    10dc:	11 f0       	breq	.+4      	; 0x10e2 <__stack+0x883>
		PORTC &= 0b11110111;
    10de:	ab 98       	cbi	0x15, 3	; 21
    10e0:	01 c0       	rjmp	.+2      	; 0x10e4 <__stack+0x885>
	}else{
		PORTC |= 0b00001000;
    10e2:	ab 9a       	sbi	0x15, 3	; 21
	}
	
	
	//Engage the motors
	OCR1A = rightMotorSpeed;						//Set the calculated value to the PWM compare to engage the right motor
    10e4:	80 91 6c 00 	lds	r24, 0x006C	; 0x80006c <rightMotorSpeed.2023>
    10e8:	90 91 6d 00 	lds	r25, 0x006D	; 0x80006d <rightMotorSpeed.2023+0x1>
    10ec:	9b bd       	out	0x2b, r25	; 43
    10ee:	8a bd       	out	0x2a, r24	; 42
	OCR1B = leftMotorSpeed;							//And do the same for the left one
    10f0:	80 91 70 00 	lds	r24, 0x0070	; 0x800070 <leftMotorSpeed.2022>
    10f4:	90 91 71 00 	lds	r25, 0x0071	; 0x800071 <leftMotorSpeed.2022+0x1>
    10f8:	99 bd       	out	0x29, r25	; 41
    10fa:	88 bd       	out	0x28, r24	; 40
	
	return 0;
}
    10fc:	80 e0       	ldi	r24, 0x00	; 0
    10fe:	90 e0       	ldi	r25, 0x00	; 0
    1100:	e3 96       	adiw	r28, 0x33	; 51
    1102:	0f b6       	in	r0, 0x3f	; 63
    1104:	f8 94       	cli
    1106:	de bf       	out	0x3e, r29	; 62
    1108:	0f be       	out	0x3f, r0	; 63
    110a:	cd bf       	out	0x3d, r28	; 61
    110c:	df 91       	pop	r29
    110e:	cf 91       	pop	r28
    1110:	1f 91       	pop	r17
    1112:	0f 91       	pop	r16
    1114:	ff 90       	pop	r15
    1116:	ef 90       	pop	r14
    1118:	df 90       	pop	r13
    111a:	cf 90       	pop	r12
    111c:	bf 90       	pop	r11
    111e:	af 90       	pop	r10
    1120:	9f 90       	pop	r9
    1122:	8f 90       	pop	r8
    1124:	7f 90       	pop	r7
    1126:	6f 90       	pop	r6
    1128:	5f 90       	pop	r5
    112a:	4f 90       	pop	r4
    112c:	3f 90       	pop	r3
    112e:	2f 90       	pop	r2
    1130:	08 95       	ret

00001132 <bumperCheck>:
//------------------------------------------------------

uint8_t bumperCheck() {
    1132:	2f 92       	push	r2
    1134:	3f 92       	push	r3
    1136:	4f 92       	push	r4
    1138:	5f 92       	push	r5
    113a:	6f 92       	push	r6
    113c:	7f 92       	push	r7
    113e:	8f 92       	push	r8
    1140:	9f 92       	push	r9
    1142:	af 92       	push	r10
    1144:	bf 92       	push	r11
    1146:	cf 92       	push	r12
    1148:	df 92       	push	r13
    114a:	ef 92       	push	r14
    114c:	ff 92       	push	r15
    114e:	0f 93       	push	r16
    1150:	1f 93       	push	r17
    1152:	cf 93       	push	r28
    1154:	df 93       	push	r29
    1156:	cd b7       	in	r28, 0x3d	; 61
    1158:	de b7       	in	r29, 0x3e	; 62
    115a:	28 97       	sbiw	r28, 0x08	; 8
    115c:	0f b6       	in	r0, 0x3f	; 63
    115e:	f8 94       	cli
    1160:	de bf       	out	0x3e, r29	; 62
    1162:	0f be       	out	0x3f, r0	; 63
    1164:	cd bf       	out	0x3d, r28	; 61
	
	static uint32_t bumperTimer = 0; //Used to determine how long the RP6 drives backwards
	//static uint8_t enable = 0; //if 1, RP6 drives backwards
	
	if (getBumpers()) { //If one or both bumpers are pushed
    1166:	0e 94 5b 00 	call	0xb6	; 0xb6 <getBumpers>
    116a:	89 2b       	or	r24, r25
    116c:	81 f0       	breq	.+32     	; 0x118e <bumperCheck+0x5c>
		arduinoData.bumperFlag = 1;
    116e:	81 e0       	ldi	r24, 0x01	; 1
    1170:	90 e0       	ldi	r25, 0x00	; 0
    1172:	90 93 87 00 	sts	0x0087, r25	; 0x800087 <arduinoData+0x1>
    1176:	80 93 86 00 	sts	0x0086, r24	; 0x800086 <arduinoData>
		bumperTimer = micros();
    117a:	0e 94 cd 00 	call	0x19a	; 0x19a <micros>
    117e:	20 93 66 00 	sts	0x0066, r18	; 0x800066 <__data_end>
    1182:	30 93 67 00 	sts	0x0067, r19	; 0x800067 <__data_end+0x1>
    1186:	40 93 68 00 	sts	0x0068, r20	; 0x800068 <__data_end+0x2>
    118a:	50 93 69 00 	sts	0x0069, r21	; 0x800069 <__data_end+0x3>
	}
		
	if (arduinoData.bumperFlag) {
    118e:	80 91 86 00 	lds	r24, 0x0086	; 0x800086 <arduinoData>
    1192:	90 91 87 00 	lds	r25, 0x0087	; 0x800087 <arduinoData+0x1>
    1196:	89 2b       	or	r24, r25
    1198:	09 f4       	brne	.+2      	; 0x119c <bumperCheck+0x6a>
    119a:	5a c0       	rjmp	.+180    	; 0x1250 <bumperCheck+0x11e>
		
		if (micros() < bumperTimer + BUMPED_STOP_TIME) {
    119c:	0e 94 cd 00 	call	0x19a	; 0x19a <micros>
    11a0:	f2 2f       	mov	r31, r18
    11a2:	e3 2f       	mov	r30, r19
    11a4:	40 90 66 00 	lds	r4, 0x0066	; 0x800066 <__data_end>
    11a8:	50 90 67 00 	lds	r5, 0x0067	; 0x800067 <__data_end+0x1>
    11ac:	60 90 68 00 	lds	r6, 0x0068	; 0x800068 <__data_end+0x2>
    11b0:	70 90 69 00 	lds	r7, 0x0069	; 0x800069 <__data_end+0x3>
    11b4:	93 01       	movw	r18, r6
    11b6:	82 01       	movw	r16, r4
    11b8:	00 59       	subi	r16, 0x90	; 144
    11ba:	1e 4e       	sbci	r17, 0xEE	; 238
    11bc:	2e 4f       	sbci	r18, 0xFE	; 254
    11be:	3f 4f       	sbci	r19, 0xFF	; 255
    11c0:	48 01       	movw	r8, r16
    11c2:	59 01       	movw	r10, r18
    11c4:	ab 82       	std	Y+3, r10	; 0x03
    11c6:	bc 82       	std	Y+4, r11	; 0x04
    11c8:	2f 2f       	mov	r18, r31
    11ca:	3e 2f       	mov	r19, r30
    11cc:	a8 2c       	mov	r10, r8
    11ce:	b9 2c       	mov	r11, r9
    11d0:	cb 80       	ldd	r12, Y+3	; 0x03
    11d2:	dc 80       	ldd	r13, Y+4	; 0x04
    11d4:	e1 2c       	mov	r14, r1
    11d6:	f1 2c       	mov	r15, r1
    11d8:	00 e0       	ldi	r16, 0x00	; 0
    11da:	10 e0       	ldi	r17, 0x00	; 0
    11dc:	0e 94 94 0b 	call	0x1728	; 0x1728 <__cmpdi2>
    11e0:	58 f4       	brcc	.+22     	; 0x11f8 <bumperCheck+0xc6>
			bumpedData.driveSpeed = 0;
    11e2:	ef eb       	ldi	r30, 0xBF	; 191
    11e4:	f0 e0       	ldi	r31, 0x00	; 0
    11e6:	10 82       	st	Z, r1
    11e8:	11 82       	std	Z+1, r1	; 0x01
    11ea:	12 82       	std	Z+2, r1	; 0x02
    11ec:	13 82       	std	Z+3, r1	; 0x03
			bumpedData.accelerationRate = 5000;
    11ee:	88 e8       	ldi	r24, 0x88	; 136
    11f0:	93 e1       	ldi	r25, 0x13	; 19
    11f2:	97 83       	std	Z+7, r25	; 0x07
    11f4:	86 83       	std	Z+6, r24	; 0x06
    11f6:	2c c0       	rjmp	.+88     	; 0x1250 <bumperCheck+0x11e>
		} else if (micros() < bumperTimer + BUMPED_BACK_TIME) {
    11f8:	0e 94 cd 00 	call	0x19a	; 0x19a <micros>
    11fc:	e0 ec       	ldi	r30, 0xC0	; 192
    11fe:	4e 0e       	add	r4, r30
    1200:	e6 ec       	ldi	r30, 0xC6	; 198
    1202:	5e 1e       	adc	r5, r30
    1204:	ed e2       	ldi	r30, 0x2D	; 45
    1206:	6e 1e       	adc	r6, r30
    1208:	71 1c       	adc	r7, r1
    120a:	12 01       	movw	r2, r4
    120c:	23 01       	movw	r4, r6
    120e:	a2 2c       	mov	r10, r2
    1210:	b3 2c       	mov	r11, r3
    1212:	c4 2c       	mov	r12, r4
    1214:	d5 2c       	mov	r13, r5
    1216:	e1 2c       	mov	r14, r1
    1218:	f1 2c       	mov	r15, r1
    121a:	00 e0       	ldi	r16, 0x00	; 0
    121c:	10 e0       	ldi	r17, 0x00	; 0
    121e:	0e 94 94 0b 	call	0x1728	; 0x1728 <__cmpdi2>
    1222:	90 f4       	brcc	.+36     	; 0x1248 <bumperCheck+0x116>
			bumpedData.driveSpeed = 30;
    1224:	ef eb       	ldi	r30, 0xBF	; 191
    1226:	f0 e0       	ldi	r31, 0x00	; 0
    1228:	8e e1       	ldi	r24, 0x1E	; 30
    122a:	90 e0       	ldi	r25, 0x00	; 0
    122c:	a0 e0       	ldi	r26, 0x00	; 0
    122e:	b0 e0       	ldi	r27, 0x00	; 0
    1230:	80 83       	st	Z, r24
    1232:	91 83       	std	Z+1, r25	; 0x01
    1234:	a2 83       	std	Z+2, r26	; 0x02
    1236:	b3 83       	std	Z+3, r27	; 0x03
			bumpedData.driveDirection = 0;
    1238:	14 82       	std	Z+4, r1	; 0x04
			bumpedData.accelerationRate = rp6Data.accelerationRate;
    123a:	80 91 aa 00 	lds	r24, 0x00AA	; 0x8000aa <rp6Data+0x6>
    123e:	90 91 ab 00 	lds	r25, 0x00AB	; 0x8000ab <rp6Data+0x7>
    1242:	97 83       	std	Z+7, r25	; 0x07
    1244:	86 83       	std	Z+6, r24	; 0x06
    1246:	04 c0       	rjmp	.+8      	; 0x1250 <bumperCheck+0x11e>
		} else {
			arduinoData.bumperFlag = 0;
    1248:	10 92 87 00 	sts	0x0087, r1	; 0x800087 <arduinoData+0x1>
    124c:	10 92 86 00 	sts	0x0086, r1	; 0x800086 <arduinoData>
		}
	}
	
	return arduinoData.bumperFlag;
    1250:	80 91 86 00 	lds	r24, 0x0086	; 0x800086 <arduinoData>
    1254:	28 96       	adiw	r28, 0x08	; 8
    1256:	0f b6       	in	r0, 0x3f	; 63
    1258:	f8 94       	cli
    125a:	de bf       	out	0x3e, r29	; 62
    125c:	0f be       	out	0x3f, r0	; 63
    125e:	cd bf       	out	0x3d, r28	; 61
    1260:	df 91       	pop	r29
    1262:	cf 91       	pop	r28
    1264:	1f 91       	pop	r17
    1266:	0f 91       	pop	r16
    1268:	ff 90       	pop	r15
    126a:	ef 90       	pop	r14
    126c:	df 90       	pop	r13
    126e:	cf 90       	pop	r12
    1270:	bf 90       	pop	r11
    1272:	af 90       	pop	r10
    1274:	9f 90       	pop	r9
    1276:	8f 90       	pop	r8
    1278:	7f 90       	pop	r7
    127a:	6f 90       	pop	r6
    127c:	5f 90       	pop	r5
    127e:	4f 90       	pop	r4
    1280:	3f 90       	pop	r3
    1282:	2f 90       	pop	r2
    1284:	08 95       	ret

00001286 <main>:
	}
}

//Other functions
void init_interrupt(){
	sei();									//Enable global interrupts
    1286:	78 94       	sei

//Main function
int main(void) {
	//Initialize all functions
	init_interrupt();
	init_micros();
    1288:	0e 94 73 00 	call	0xe6	; 0xe6 <init_micros>
	
	init_motor();
    128c:	0e 94 9e 02 	call	0x53c	; 0x53c <init_motor>
	init_LED();
    1290:	0e 94 6c 00 	call	0xd8	; 0xd8 <init_LED>
	
	init_rp6Data();
    1294:	0e 94 1e 01 	call	0x23c	; 0x23c <init_rp6Data>
	init_bumpedData();
    1298:	0e 94 3d 01 	call	0x27a	; 0x27a <init_bumpedData>
	init_arduinoData();
    129c:	0e 94 5c 01 	call	0x2b8	; 0x2b8 <init_arduinoData>
	
	init_TWI();
    12a0:	0e 94 10 01 	call	0x220	; 0x220 <init_TWI>
	
	clearSendData();
    12a4:	0e 94 63 01 	call	0x2c6	; 0x2c6 <clearSendData>
	clearReceiveData();
    12a8:	0e 94 6c 01 	call	0x2d8	; 0x2d8 <clearReceiveData>
		
	while(1){
		if (bumperCheck()) {
    12ac:	0e 94 99 08 	call	0x1132	; 0x1132 <bumperCheck>
    12b0:	88 23       	and	r24, r24
    12b2:	e9 f0       	breq	.+58     	; 0x12ee <main+0x68>
			motorDriver(bumpedData);
    12b4:	8d b7       	in	r24, 0x3d	; 61
    12b6:	9e b7       	in	r25, 0x3e	; 62
    12b8:	43 97       	sbiw	r24, 0x13	; 19
    12ba:	0f b6       	in	r0, 0x3f	; 63
    12bc:	f8 94       	cli
    12be:	9e bf       	out	0x3e, r25	; 62
    12c0:	0f be       	out	0x3f, r0	; 63
    12c2:	8d bf       	out	0x3d, r24	; 61
    12c4:	ad b7       	in	r26, 0x3d	; 61
    12c6:	be b7       	in	r27, 0x3e	; 62
    12c8:	11 96       	adiw	r26, 0x01	; 1
    12ca:	83 e1       	ldi	r24, 0x13	; 19
    12cc:	ef eb       	ldi	r30, 0xBF	; 191
    12ce:	f0 e0       	ldi	r31, 0x00	; 0
    12d0:	01 90       	ld	r0, Z+
    12d2:	0d 92       	st	X+, r0
    12d4:	8a 95       	dec	r24
    12d6:	e1 f7       	brne	.-8      	; 0x12d0 <main+0x4a>
    12d8:	0e 94 a3 02 	call	0x546	; 0x546 <motorDriver>
    12dc:	8d b7       	in	r24, 0x3d	; 61
    12de:	9e b7       	in	r25, 0x3e	; 62
    12e0:	43 96       	adiw	r24, 0x13	; 19
    12e2:	0f b6       	in	r0, 0x3f	; 63
    12e4:	f8 94       	cli
    12e6:	9e bf       	out	0x3e, r25	; 62
    12e8:	0f be       	out	0x3f, r0	; 63
    12ea:	8d bf       	out	0x3d, r24	; 61
    12ec:	df cf       	rjmp	.-66     	; 0x12ac <main+0x26>
		} else {
			motorDriver(rp6Data);
    12ee:	8d b7       	in	r24, 0x3d	; 61
    12f0:	9e b7       	in	r25, 0x3e	; 62
    12f2:	43 97       	sbiw	r24, 0x13	; 19
    12f4:	0f b6       	in	r0, 0x3f	; 63
    12f6:	f8 94       	cli
    12f8:	9e bf       	out	0x3e, r25	; 62
    12fa:	0f be       	out	0x3f, r0	; 63
    12fc:	8d bf       	out	0x3d, r24	; 61
    12fe:	ad b7       	in	r26, 0x3d	; 61
    1300:	be b7       	in	r27, 0x3e	; 62
    1302:	11 96       	adiw	r26, 0x01	; 1
    1304:	83 e1       	ldi	r24, 0x13	; 19
    1306:	e4 ea       	ldi	r30, 0xA4	; 164
    1308:	f0 e0       	ldi	r31, 0x00	; 0
    130a:	01 90       	ld	r0, Z+
    130c:	0d 92       	st	X+, r0
    130e:	8a 95       	dec	r24
    1310:	e1 f7       	brne	.-8      	; 0x130a <main+0x84>
    1312:	0e 94 a3 02 	call	0x546	; 0x546 <motorDriver>
    1316:	8d b7       	in	r24, 0x3d	; 61
    1318:	9e b7       	in	r25, 0x3e	; 62
    131a:	43 96       	adiw	r24, 0x13	; 19
    131c:	0f b6       	in	r0, 0x3f	; 63
    131e:	f8 94       	cli
    1320:	9e bf       	out	0x3e, r25	; 62
    1322:	0f be       	out	0x3f, r0	; 63
    1324:	8d bf       	out	0x3d, r24	; 61
    1326:	c2 cf       	rjmp	.-124    	; 0x12ac <main+0x26>

00001328 <__fixunssfsi>:
    1328:	0e 94 1f 0a 	call	0x143e	; 0x143e <__fp_splitA>
    132c:	88 f0       	brcs	.+34     	; 0x1350 <__fixunssfsi+0x28>
    132e:	9f 57       	subi	r25, 0x7F	; 127
    1330:	98 f0       	brcs	.+38     	; 0x1358 <__fixunssfsi+0x30>
    1332:	b9 2f       	mov	r27, r25
    1334:	99 27       	eor	r25, r25
    1336:	b7 51       	subi	r27, 0x17	; 23
    1338:	b0 f0       	brcs	.+44     	; 0x1366 <__fixunssfsi+0x3e>
    133a:	e1 f0       	breq	.+56     	; 0x1374 <__fixunssfsi+0x4c>
    133c:	66 0f       	add	r22, r22
    133e:	77 1f       	adc	r23, r23
    1340:	88 1f       	adc	r24, r24
    1342:	99 1f       	adc	r25, r25
    1344:	1a f0       	brmi	.+6      	; 0x134c <__fixunssfsi+0x24>
    1346:	ba 95       	dec	r27
    1348:	c9 f7       	brne	.-14     	; 0x133c <__fixunssfsi+0x14>
    134a:	14 c0       	rjmp	.+40     	; 0x1374 <__fixunssfsi+0x4c>
    134c:	b1 30       	cpi	r27, 0x01	; 1
    134e:	91 f0       	breq	.+36     	; 0x1374 <__fixunssfsi+0x4c>
    1350:	0e 94 39 0a 	call	0x1472	; 0x1472 <__fp_zero>
    1354:	b1 e0       	ldi	r27, 0x01	; 1
    1356:	08 95       	ret
    1358:	0c 94 39 0a 	jmp	0x1472	; 0x1472 <__fp_zero>
    135c:	67 2f       	mov	r22, r23
    135e:	78 2f       	mov	r23, r24
    1360:	88 27       	eor	r24, r24
    1362:	b8 5f       	subi	r27, 0xF8	; 248
    1364:	39 f0       	breq	.+14     	; 0x1374 <__fixunssfsi+0x4c>
    1366:	b9 3f       	cpi	r27, 0xF9	; 249
    1368:	cc f3       	brlt	.-14     	; 0x135c <__fixunssfsi+0x34>
    136a:	86 95       	lsr	r24
    136c:	77 95       	ror	r23
    136e:	67 95       	ror	r22
    1370:	b3 95       	inc	r27
    1372:	d9 f7       	brne	.-10     	; 0x136a <__fixunssfsi+0x42>
    1374:	3e f4       	brtc	.+14     	; 0x1384 <__fixunssfsi+0x5c>
    1376:	90 95       	com	r25
    1378:	80 95       	com	r24
    137a:	70 95       	com	r23
    137c:	61 95       	neg	r22
    137e:	7f 4f       	sbci	r23, 0xFF	; 255
    1380:	8f 4f       	sbci	r24, 0xFF	; 255
    1382:	9f 4f       	sbci	r25, 0xFF	; 255
    1384:	08 95       	ret

00001386 <__floatdisf>:
    1386:	97 fb       	bst	r25, 7
    1388:	16 f4       	brtc	.+4      	; 0x138e <__floatdisf+0x8>
    138a:	0e 94 07 0a 	call	0x140e	; 0x140e <__fp_negdi>
    138e:	0c 94 ca 09 	jmp	0x1394	; 0x1394 <__fp_di2sf>

00001392 <__floatundisf>:
    1392:	e8 94       	clt

00001394 <__fp_di2sf>:
    1394:	f9 2f       	mov	r31, r25
    1396:	96 eb       	ldi	r25, 0xB6	; 182
    1398:	ff 23       	and	r31, r31
    139a:	81 f0       	breq	.+32     	; 0x13bc <__fp_di2sf+0x28>
    139c:	12 16       	cp	r1, r18
    139e:	13 06       	cpc	r1, r19
    13a0:	14 06       	cpc	r1, r20
    13a2:	44 0b       	sbc	r20, r20
    13a4:	93 95       	inc	r25
    13a6:	f6 95       	lsr	r31
    13a8:	87 95       	ror	r24
    13aa:	77 95       	ror	r23
    13ac:	67 95       	ror	r22
    13ae:	57 95       	ror	r21
    13b0:	40 40       	sbci	r20, 0x00	; 0
    13b2:	ff 23       	and	r31, r31
    13b4:	b9 f7       	brne	.-18     	; 0x13a4 <__fp_di2sf+0x10>
    13b6:	1b c0       	rjmp	.+54     	; 0x13ee <__fp_di2sf+0x5a>
    13b8:	99 27       	eor	r25, r25
    13ba:	08 95       	ret
    13bc:	88 23       	and	r24, r24
    13be:	51 f4       	brne	.+20     	; 0x13d4 <__fp_di2sf+0x40>
    13c0:	98 50       	subi	r25, 0x08	; 8
    13c2:	d2 f7       	brpl	.-12     	; 0x13b8 <__fp_di2sf+0x24>
    13c4:	87 2b       	or	r24, r23
    13c6:	76 2f       	mov	r23, r22
    13c8:	65 2f       	mov	r22, r21
    13ca:	54 2f       	mov	r21, r20
    13cc:	43 2f       	mov	r20, r19
    13ce:	32 2f       	mov	r19, r18
    13d0:	20 e0       	ldi	r18, 0x00	; 0
    13d2:	b1 f3       	breq	.-20     	; 0x13c0 <__fp_di2sf+0x2c>
    13d4:	12 16       	cp	r1, r18
    13d6:	13 06       	cpc	r1, r19
    13d8:	14 06       	cpc	r1, r20
    13da:	44 0b       	sbc	r20, r20
    13dc:	88 23       	and	r24, r24
    13de:	3a f0       	brmi	.+14     	; 0x13ee <__fp_di2sf+0x5a>
    13e0:	9a 95       	dec	r25
    13e2:	44 0f       	add	r20, r20
    13e4:	55 1f       	adc	r21, r21
    13e6:	66 1f       	adc	r22, r22
    13e8:	77 1f       	adc	r23, r23
    13ea:	88 1f       	adc	r24, r24
    13ec:	ca f7       	brpl	.-14     	; 0x13e0 <__fp_di2sf+0x4c>
    13ee:	55 23       	and	r21, r21
    13f0:	4a f4       	brpl	.+18     	; 0x1404 <__fp_di2sf+0x70>
    13f2:	44 0f       	add	r20, r20
    13f4:	55 1f       	adc	r21, r21
    13f6:	11 f4       	brne	.+4      	; 0x13fc <__fp_di2sf+0x68>
    13f8:	60 ff       	sbrs	r22, 0
    13fa:	04 c0       	rjmp	.+8      	; 0x1404 <__fp_di2sf+0x70>
    13fc:	6f 5f       	subi	r22, 0xFF	; 255
    13fe:	7f 4f       	sbci	r23, 0xFF	; 255
    1400:	8f 4f       	sbci	r24, 0xFF	; 255
    1402:	9f 4f       	sbci	r25, 0xFF	; 255
    1404:	88 0f       	add	r24, r24
    1406:	96 95       	lsr	r25
    1408:	87 95       	ror	r24
    140a:	97 f9       	bld	r25, 7
    140c:	08 95       	ret

0000140e <__fp_negdi>:
    140e:	90 95       	com	r25
    1410:	80 95       	com	r24
    1412:	70 95       	com	r23
    1414:	60 95       	com	r22
    1416:	50 95       	com	r21
    1418:	40 95       	com	r20
    141a:	30 95       	com	r19
    141c:	21 95       	neg	r18
    141e:	3f 4f       	sbci	r19, 0xFF	; 255
    1420:	4f 4f       	sbci	r20, 0xFF	; 255
    1422:	5f 4f       	sbci	r21, 0xFF	; 255
    1424:	6f 4f       	sbci	r22, 0xFF	; 255
    1426:	7f 4f       	sbci	r23, 0xFF	; 255
    1428:	8f 4f       	sbci	r24, 0xFF	; 255
    142a:	9f 4f       	sbci	r25, 0xFF	; 255
    142c:	08 95       	ret

0000142e <__fp_split3>:
    142e:	57 fd       	sbrc	r21, 7
    1430:	90 58       	subi	r25, 0x80	; 128
    1432:	44 0f       	add	r20, r20
    1434:	55 1f       	adc	r21, r21
    1436:	59 f0       	breq	.+22     	; 0x144e <__fp_splitA+0x10>
    1438:	5f 3f       	cpi	r21, 0xFF	; 255
    143a:	71 f0       	breq	.+28     	; 0x1458 <__fp_splitA+0x1a>
    143c:	47 95       	ror	r20

0000143e <__fp_splitA>:
    143e:	88 0f       	add	r24, r24
    1440:	97 fb       	bst	r25, 7
    1442:	99 1f       	adc	r25, r25
    1444:	61 f0       	breq	.+24     	; 0x145e <__fp_splitA+0x20>
    1446:	9f 3f       	cpi	r25, 0xFF	; 255
    1448:	79 f0       	breq	.+30     	; 0x1468 <__fp_splitA+0x2a>
    144a:	87 95       	ror	r24
    144c:	08 95       	ret
    144e:	12 16       	cp	r1, r18
    1450:	13 06       	cpc	r1, r19
    1452:	14 06       	cpc	r1, r20
    1454:	55 1f       	adc	r21, r21
    1456:	f2 cf       	rjmp	.-28     	; 0x143c <__fp_split3+0xe>
    1458:	46 95       	lsr	r20
    145a:	f1 df       	rcall	.-30     	; 0x143e <__fp_splitA>
    145c:	08 c0       	rjmp	.+16     	; 0x146e <__fp_splitA+0x30>
    145e:	16 16       	cp	r1, r22
    1460:	17 06       	cpc	r1, r23
    1462:	18 06       	cpc	r1, r24
    1464:	99 1f       	adc	r25, r25
    1466:	f1 cf       	rjmp	.-30     	; 0x144a <__fp_splitA+0xc>
    1468:	86 95       	lsr	r24
    146a:	71 05       	cpc	r23, r1
    146c:	61 05       	cpc	r22, r1
    146e:	08 94       	sec
    1470:	08 95       	ret

00001472 <__fp_zero>:
    1472:	e8 94       	clt

00001474 <__fp_szero>:
    1474:	bb 27       	eor	r27, r27
    1476:	66 27       	eor	r22, r22
    1478:	77 27       	eor	r23, r23
    147a:	cb 01       	movw	r24, r22
    147c:	97 f9       	bld	r25, 7
    147e:	08 95       	ret

00001480 <__mulsf3>:
    1480:	0e 94 53 0a 	call	0x14a6	; 0x14a6 <__mulsf3x>
    1484:	0c 94 1f 0b 	jmp	0x163e	; 0x163e <__fp_round>
    1488:	0e 94 11 0b 	call	0x1622	; 0x1622 <__fp_pscA>
    148c:	38 f0       	brcs	.+14     	; 0x149c <__mulsf3+0x1c>
    148e:	0e 94 18 0b 	call	0x1630	; 0x1630 <__fp_pscB>
    1492:	20 f0       	brcs	.+8      	; 0x149c <__mulsf3+0x1c>
    1494:	95 23       	and	r25, r21
    1496:	11 f0       	breq	.+4      	; 0x149c <__mulsf3+0x1c>
    1498:	0c 94 f3 0a 	jmp	0x15e6	; 0x15e6 <__fp_inf>
    149c:	0c 94 07 0b 	jmp	0x160e	; 0x160e <__fp_nan>
    14a0:	11 24       	eor	r1, r1
    14a2:	0c 94 3a 0a 	jmp	0x1474	; 0x1474 <__fp_szero>

000014a6 <__mulsf3x>:
    14a6:	0e 94 17 0a 	call	0x142e	; 0x142e <__fp_split3>
    14aa:	70 f3       	brcs	.-36     	; 0x1488 <__mulsf3+0x8>

000014ac <__mulsf3_pse>:
    14ac:	95 9f       	mul	r25, r21
    14ae:	c1 f3       	breq	.-16     	; 0x14a0 <__mulsf3+0x20>
    14b0:	95 0f       	add	r25, r21
    14b2:	50 e0       	ldi	r21, 0x00	; 0
    14b4:	55 1f       	adc	r21, r21
    14b6:	62 9f       	mul	r22, r18
    14b8:	f0 01       	movw	r30, r0
    14ba:	72 9f       	mul	r23, r18
    14bc:	bb 27       	eor	r27, r27
    14be:	f0 0d       	add	r31, r0
    14c0:	b1 1d       	adc	r27, r1
    14c2:	63 9f       	mul	r22, r19
    14c4:	aa 27       	eor	r26, r26
    14c6:	f0 0d       	add	r31, r0
    14c8:	b1 1d       	adc	r27, r1
    14ca:	aa 1f       	adc	r26, r26
    14cc:	64 9f       	mul	r22, r20
    14ce:	66 27       	eor	r22, r22
    14d0:	b0 0d       	add	r27, r0
    14d2:	a1 1d       	adc	r26, r1
    14d4:	66 1f       	adc	r22, r22
    14d6:	82 9f       	mul	r24, r18
    14d8:	22 27       	eor	r18, r18
    14da:	b0 0d       	add	r27, r0
    14dc:	a1 1d       	adc	r26, r1
    14de:	62 1f       	adc	r22, r18
    14e0:	73 9f       	mul	r23, r19
    14e2:	b0 0d       	add	r27, r0
    14e4:	a1 1d       	adc	r26, r1
    14e6:	62 1f       	adc	r22, r18
    14e8:	83 9f       	mul	r24, r19
    14ea:	a0 0d       	add	r26, r0
    14ec:	61 1d       	adc	r22, r1
    14ee:	22 1f       	adc	r18, r18
    14f0:	74 9f       	mul	r23, r20
    14f2:	33 27       	eor	r19, r19
    14f4:	a0 0d       	add	r26, r0
    14f6:	61 1d       	adc	r22, r1
    14f8:	23 1f       	adc	r18, r19
    14fa:	84 9f       	mul	r24, r20
    14fc:	60 0d       	add	r22, r0
    14fe:	21 1d       	adc	r18, r1
    1500:	82 2f       	mov	r24, r18
    1502:	76 2f       	mov	r23, r22
    1504:	6a 2f       	mov	r22, r26
    1506:	11 24       	eor	r1, r1
    1508:	9f 57       	subi	r25, 0x7F	; 127
    150a:	50 40       	sbci	r21, 0x00	; 0
    150c:	9a f0       	brmi	.+38     	; 0x1534 <__mulsf3_pse+0x88>
    150e:	f1 f0       	breq	.+60     	; 0x154c <__mulsf3_pse+0xa0>
    1510:	88 23       	and	r24, r24
    1512:	4a f0       	brmi	.+18     	; 0x1526 <__mulsf3_pse+0x7a>
    1514:	ee 0f       	add	r30, r30
    1516:	ff 1f       	adc	r31, r31
    1518:	bb 1f       	adc	r27, r27
    151a:	66 1f       	adc	r22, r22
    151c:	77 1f       	adc	r23, r23
    151e:	88 1f       	adc	r24, r24
    1520:	91 50       	subi	r25, 0x01	; 1
    1522:	50 40       	sbci	r21, 0x00	; 0
    1524:	a9 f7       	brne	.-22     	; 0x1510 <__mulsf3_pse+0x64>
    1526:	9e 3f       	cpi	r25, 0xFE	; 254
    1528:	51 05       	cpc	r21, r1
    152a:	80 f0       	brcs	.+32     	; 0x154c <__mulsf3_pse+0xa0>
    152c:	0c 94 f3 0a 	jmp	0x15e6	; 0x15e6 <__fp_inf>
    1530:	0c 94 3a 0a 	jmp	0x1474	; 0x1474 <__fp_szero>
    1534:	5f 3f       	cpi	r21, 0xFF	; 255
    1536:	e4 f3       	brlt	.-8      	; 0x1530 <__mulsf3_pse+0x84>
    1538:	98 3e       	cpi	r25, 0xE8	; 232
    153a:	d4 f3       	brlt	.-12     	; 0x1530 <__mulsf3_pse+0x84>
    153c:	86 95       	lsr	r24
    153e:	77 95       	ror	r23
    1540:	67 95       	ror	r22
    1542:	b7 95       	ror	r27
    1544:	f7 95       	ror	r31
    1546:	e7 95       	ror	r30
    1548:	9f 5f       	subi	r25, 0xFF	; 255
    154a:	c1 f7       	brne	.-16     	; 0x153c <__mulsf3_pse+0x90>
    154c:	fe 2b       	or	r31, r30
    154e:	88 0f       	add	r24, r24
    1550:	91 1d       	adc	r25, r1
    1552:	96 95       	lsr	r25
    1554:	87 95       	ror	r24
    1556:	97 f9       	bld	r25, 7
    1558:	08 95       	ret
    155a:	19 f4       	brne	.+6      	; 0x1562 <__mulsf3_pse+0xb6>
    155c:	16 f4       	brtc	.+4      	; 0x1562 <__mulsf3_pse+0xb6>
    155e:	0c 94 07 0b 	jmp	0x160e	; 0x160e <__fp_nan>
    1562:	0c 94 f9 0a 	jmp	0x15f2	; 0x15f2 <__fp_mpack>

00001566 <sqrt>:
    1566:	0e 94 1f 0a 	call	0x143e	; 0x143e <__fp_splitA>
    156a:	b8 f3       	brcs	.-18     	; 0x155a <__mulsf3_pse+0xae>
    156c:	99 23       	and	r25, r25
    156e:	c9 f3       	breq	.-14     	; 0x1562 <__mulsf3_pse+0xb6>
    1570:	b6 f3       	brts	.-20     	; 0x155e <__mulsf3_pse+0xb2>
    1572:	9f 57       	subi	r25, 0x7F	; 127
    1574:	55 0b       	sbc	r21, r21
    1576:	87 ff       	sbrs	r24, 7
    1578:	0e 94 0a 0b 	call	0x1614	; 0x1614 <__fp_norm2>
    157c:	00 24       	eor	r0, r0
    157e:	a0 e6       	ldi	r26, 0x60	; 96
    1580:	40 ea       	ldi	r20, 0xA0	; 160
    1582:	90 01       	movw	r18, r0
    1584:	80 58       	subi	r24, 0x80	; 128
    1586:	56 95       	lsr	r21
    1588:	97 95       	ror	r25
    158a:	28 f4       	brcc	.+10     	; 0x1596 <sqrt+0x30>
    158c:	80 5c       	subi	r24, 0xC0	; 192
    158e:	66 0f       	add	r22, r22
    1590:	77 1f       	adc	r23, r23
    1592:	88 1f       	adc	r24, r24
    1594:	20 f0       	brcs	.+8      	; 0x159e <sqrt+0x38>
    1596:	26 17       	cp	r18, r22
    1598:	37 07       	cpc	r19, r23
    159a:	48 07       	cpc	r20, r24
    159c:	30 f4       	brcc	.+12     	; 0x15aa <sqrt+0x44>
    159e:	62 1b       	sub	r22, r18
    15a0:	73 0b       	sbc	r23, r19
    15a2:	84 0b       	sbc	r24, r20
    15a4:	20 29       	or	r18, r0
    15a6:	31 29       	or	r19, r1
    15a8:	4a 2b       	or	r20, r26
    15aa:	a6 95       	lsr	r26
    15ac:	17 94       	ror	r1
    15ae:	07 94       	ror	r0
    15b0:	20 25       	eor	r18, r0
    15b2:	31 25       	eor	r19, r1
    15b4:	4a 27       	eor	r20, r26
    15b6:	58 f7       	brcc	.-42     	; 0x158e <sqrt+0x28>
    15b8:	66 0f       	add	r22, r22
    15ba:	77 1f       	adc	r23, r23
    15bc:	88 1f       	adc	r24, r24
    15be:	20 f0       	brcs	.+8      	; 0x15c8 <sqrt+0x62>
    15c0:	26 17       	cp	r18, r22
    15c2:	37 07       	cpc	r19, r23
    15c4:	48 07       	cpc	r20, r24
    15c6:	30 f4       	brcc	.+12     	; 0x15d4 <sqrt+0x6e>
    15c8:	62 0b       	sbc	r22, r18
    15ca:	73 0b       	sbc	r23, r19
    15cc:	84 0b       	sbc	r24, r20
    15ce:	20 0d       	add	r18, r0
    15d0:	31 1d       	adc	r19, r1
    15d2:	41 1d       	adc	r20, r1
    15d4:	a0 95       	com	r26
    15d6:	81 f7       	brne	.-32     	; 0x15b8 <sqrt+0x52>
    15d8:	b9 01       	movw	r22, r18
    15da:	84 2f       	mov	r24, r20
    15dc:	91 58       	subi	r25, 0x81	; 129
    15de:	88 0f       	add	r24, r24
    15e0:	96 95       	lsr	r25
    15e2:	87 95       	ror	r24
    15e4:	08 95       	ret

000015e6 <__fp_inf>:
    15e6:	97 f9       	bld	r25, 7
    15e8:	9f 67       	ori	r25, 0x7F	; 127
    15ea:	80 e8       	ldi	r24, 0x80	; 128
    15ec:	70 e0       	ldi	r23, 0x00	; 0
    15ee:	60 e0       	ldi	r22, 0x00	; 0
    15f0:	08 95       	ret

000015f2 <__fp_mpack>:
    15f2:	9f 3f       	cpi	r25, 0xFF	; 255
    15f4:	31 f0       	breq	.+12     	; 0x1602 <__fp_mpack_finite+0xc>

000015f6 <__fp_mpack_finite>:
    15f6:	91 50       	subi	r25, 0x01	; 1
    15f8:	20 f4       	brcc	.+8      	; 0x1602 <__fp_mpack_finite+0xc>
    15fa:	87 95       	ror	r24
    15fc:	77 95       	ror	r23
    15fe:	67 95       	ror	r22
    1600:	b7 95       	ror	r27
    1602:	88 0f       	add	r24, r24
    1604:	91 1d       	adc	r25, r1
    1606:	96 95       	lsr	r25
    1608:	87 95       	ror	r24
    160a:	97 f9       	bld	r25, 7
    160c:	08 95       	ret

0000160e <__fp_nan>:
    160e:	9f ef       	ldi	r25, 0xFF	; 255
    1610:	80 ec       	ldi	r24, 0xC0	; 192
    1612:	08 95       	ret

00001614 <__fp_norm2>:
    1614:	91 50       	subi	r25, 0x01	; 1
    1616:	50 40       	sbci	r21, 0x00	; 0
    1618:	66 0f       	add	r22, r22
    161a:	77 1f       	adc	r23, r23
    161c:	88 1f       	adc	r24, r24
    161e:	d2 f7       	brpl	.-12     	; 0x1614 <__fp_norm2>
    1620:	08 95       	ret

00001622 <__fp_pscA>:
    1622:	00 24       	eor	r0, r0
    1624:	0a 94       	dec	r0
    1626:	16 16       	cp	r1, r22
    1628:	17 06       	cpc	r1, r23
    162a:	18 06       	cpc	r1, r24
    162c:	09 06       	cpc	r0, r25
    162e:	08 95       	ret

00001630 <__fp_pscB>:
    1630:	00 24       	eor	r0, r0
    1632:	0a 94       	dec	r0
    1634:	12 16       	cp	r1, r18
    1636:	13 06       	cpc	r1, r19
    1638:	14 06       	cpc	r1, r20
    163a:	05 06       	cpc	r0, r21
    163c:	08 95       	ret

0000163e <__fp_round>:
    163e:	09 2e       	mov	r0, r25
    1640:	03 94       	inc	r0
    1642:	00 0c       	add	r0, r0
    1644:	11 f4       	brne	.+4      	; 0x164a <__fp_round+0xc>
    1646:	88 23       	and	r24, r24
    1648:	52 f0       	brmi	.+20     	; 0x165e <__fp_round+0x20>
    164a:	bb 0f       	add	r27, r27
    164c:	40 f4       	brcc	.+16     	; 0x165e <__fp_round+0x20>
    164e:	bf 2b       	or	r27, r31
    1650:	11 f4       	brne	.+4      	; 0x1656 <__fp_round+0x18>
    1652:	60 ff       	sbrs	r22, 0
    1654:	04 c0       	rjmp	.+8      	; 0x165e <__fp_round+0x20>
    1656:	6f 5f       	subi	r22, 0xFF	; 255
    1658:	7f 4f       	sbci	r23, 0xFF	; 255
    165a:	8f 4f       	sbci	r24, 0xFF	; 255
    165c:	9f 4f       	sbci	r25, 0xFF	; 255
    165e:	08 95       	ret

00001660 <__udivmodsi4>:
    1660:	a1 e2       	ldi	r26, 0x21	; 33
    1662:	1a 2e       	mov	r1, r26
    1664:	aa 1b       	sub	r26, r26
    1666:	bb 1b       	sub	r27, r27
    1668:	fd 01       	movw	r30, r26
    166a:	0d c0       	rjmp	.+26     	; 0x1686 <__udivmodsi4_ep>

0000166c <__udivmodsi4_loop>:
    166c:	aa 1f       	adc	r26, r26
    166e:	bb 1f       	adc	r27, r27
    1670:	ee 1f       	adc	r30, r30
    1672:	ff 1f       	adc	r31, r31
    1674:	a2 17       	cp	r26, r18
    1676:	b3 07       	cpc	r27, r19
    1678:	e4 07       	cpc	r30, r20
    167a:	f5 07       	cpc	r31, r21
    167c:	20 f0       	brcs	.+8      	; 0x1686 <__udivmodsi4_ep>
    167e:	a2 1b       	sub	r26, r18
    1680:	b3 0b       	sbc	r27, r19
    1682:	e4 0b       	sbc	r30, r20
    1684:	f5 0b       	sbc	r31, r21

00001686 <__udivmodsi4_ep>:
    1686:	66 1f       	adc	r22, r22
    1688:	77 1f       	adc	r23, r23
    168a:	88 1f       	adc	r24, r24
    168c:	99 1f       	adc	r25, r25
    168e:	1a 94       	dec	r1
    1690:	69 f7       	brne	.-38     	; 0x166c <__udivmodsi4_loop>
    1692:	60 95       	com	r22
    1694:	70 95       	com	r23
    1696:	80 95       	com	r24
    1698:	90 95       	com	r25
    169a:	9b 01       	movw	r18, r22
    169c:	ac 01       	movw	r20, r24
    169e:	bd 01       	movw	r22, r26
    16a0:	cf 01       	movw	r24, r30
    16a2:	08 95       	ret

000016a4 <__muluhisi3>:
    16a4:	0e 94 a9 0b 	call	0x1752	; 0x1752 <__umulhisi3>
    16a8:	a5 9f       	mul	r26, r21
    16aa:	90 0d       	add	r25, r0
    16ac:	b4 9f       	mul	r27, r20
    16ae:	90 0d       	add	r25, r0
    16b0:	a4 9f       	mul	r26, r20
    16b2:	80 0d       	add	r24, r0
    16b4:	91 1d       	adc	r25, r1
    16b6:	11 24       	eor	r1, r1
    16b8:	08 95       	ret

000016ba <__ashldi3>:
    16ba:	0f 93       	push	r16
    16bc:	08 30       	cpi	r16, 0x08	; 8
    16be:	90 f0       	brcs	.+36     	; 0x16e4 <__ashldi3+0x2a>
    16c0:	98 2f       	mov	r25, r24
    16c2:	87 2f       	mov	r24, r23
    16c4:	76 2f       	mov	r23, r22
    16c6:	65 2f       	mov	r22, r21
    16c8:	54 2f       	mov	r21, r20
    16ca:	43 2f       	mov	r20, r19
    16cc:	32 2f       	mov	r19, r18
    16ce:	22 27       	eor	r18, r18
    16d0:	08 50       	subi	r16, 0x08	; 8
    16d2:	f4 cf       	rjmp	.-24     	; 0x16bc <__ashldi3+0x2>
    16d4:	22 0f       	add	r18, r18
    16d6:	33 1f       	adc	r19, r19
    16d8:	44 1f       	adc	r20, r20
    16da:	55 1f       	adc	r21, r21
    16dc:	66 1f       	adc	r22, r22
    16de:	77 1f       	adc	r23, r23
    16e0:	88 1f       	adc	r24, r24
    16e2:	99 1f       	adc	r25, r25
    16e4:	0a 95       	dec	r16
    16e6:	b2 f7       	brpl	.-20     	; 0x16d4 <__ashldi3+0x1a>
    16e8:	0f 91       	pop	r16
    16ea:	08 95       	ret

000016ec <__adddi3>:
    16ec:	2a 0d       	add	r18, r10
    16ee:	3b 1d       	adc	r19, r11
    16f0:	4c 1d       	adc	r20, r12
    16f2:	5d 1d       	adc	r21, r13
    16f4:	6e 1d       	adc	r22, r14
    16f6:	7f 1d       	adc	r23, r15
    16f8:	80 1f       	adc	r24, r16
    16fa:	91 1f       	adc	r25, r17
    16fc:	08 95       	ret

000016fe <__adddi3_s8>:
    16fe:	00 24       	eor	r0, r0
    1700:	a7 fd       	sbrc	r26, 7
    1702:	00 94       	com	r0
    1704:	2a 0f       	add	r18, r26
    1706:	30 1d       	adc	r19, r0
    1708:	40 1d       	adc	r20, r0
    170a:	50 1d       	adc	r21, r0
    170c:	60 1d       	adc	r22, r0
    170e:	70 1d       	adc	r23, r0
    1710:	80 1d       	adc	r24, r0
    1712:	90 1d       	adc	r25, r0
    1714:	08 95       	ret

00001716 <__subdi3>:
    1716:	2a 19       	sub	r18, r10
    1718:	3b 09       	sbc	r19, r11
    171a:	4c 09       	sbc	r20, r12
    171c:	5d 09       	sbc	r21, r13
    171e:	6e 09       	sbc	r22, r14
    1720:	7f 09       	sbc	r23, r15
    1722:	80 0b       	sbc	r24, r16
    1724:	91 0b       	sbc	r25, r17
    1726:	08 95       	ret

00001728 <__cmpdi2>:
    1728:	2a 15       	cp	r18, r10
    172a:	3b 05       	cpc	r19, r11
    172c:	4c 05       	cpc	r20, r12
    172e:	5d 05       	cpc	r21, r13
    1730:	6e 05       	cpc	r22, r14
    1732:	7f 05       	cpc	r23, r15
    1734:	80 07       	cpc	r24, r16
    1736:	91 07       	cpc	r25, r17
    1738:	08 95       	ret

0000173a <__cmpdi2_s8>:
    173a:	00 24       	eor	r0, r0
    173c:	a7 fd       	sbrc	r26, 7
    173e:	00 94       	com	r0
    1740:	2a 17       	cp	r18, r26
    1742:	30 05       	cpc	r19, r0
    1744:	40 05       	cpc	r20, r0
    1746:	50 05       	cpc	r21, r0
    1748:	60 05       	cpc	r22, r0
    174a:	70 05       	cpc	r23, r0
    174c:	80 05       	cpc	r24, r0
    174e:	90 05       	cpc	r25, r0
    1750:	08 95       	ret

00001752 <__umulhisi3>:
    1752:	a2 9f       	mul	r26, r18
    1754:	b0 01       	movw	r22, r0
    1756:	b3 9f       	mul	r27, r19
    1758:	c0 01       	movw	r24, r0
    175a:	a3 9f       	mul	r26, r19
    175c:	70 0d       	add	r23, r0
    175e:	81 1d       	adc	r24, r1
    1760:	11 24       	eor	r1, r1
    1762:	91 1d       	adc	r25, r1
    1764:	b2 9f       	mul	r27, r18
    1766:	70 0d       	add	r23, r0
    1768:	81 1d       	adc	r24, r1
    176a:	11 24       	eor	r1, r1
    176c:	91 1d       	adc	r25, r1
    176e:	08 95       	ret

00001770 <_exit>:
    1770:	f8 94       	cli

00001772 <__stop_program>:
    1772:	ff cf       	rjmp	.-2      	; 0x1772 <__stop_program>
